; ModuleID = '/home/brett/workspace/Vivado_WS/ws_rsa64bit/solution1/.autopilot/db/a.o.3.bc'
target datalayout = "e-p:64:64:64-i1:8:8-i8:8:8-i16:16:16-i32:32:32-i64:64:64-f32:32:32-f64:64:64-v64:64:64-v128:128:128-a0:0:64-s0:64:64-f80:128:128-n8:16:32:64-S128"
target triple = "x86_64-unknown-linux-gnu"

@llvm_global_ctors_1 = appending global [4 x void ()*] [void ()* @_GLOBAL__I_a, void ()* @_GLOBAL__I_a7, void ()* @_GLOBAL__I_a12, void ()* @_GLOBAL__I_a19] ; [#uses=0 type=[4 x void ()*]*]
@llvm_global_ctors_0 = appending global [4 x i32] [i32 65535, i32 65535, i32 65535, i32 65535] ; [#uses=0 type=[4 x i32]*]
@ModExp_str = internal unnamed_addr constant [7 x i8] c"ModExp\00" ; [#uses=1 type=[7 x i8]*]
@p_str2 = private unnamed_addr constant [4 x i8] c"mul\00", align 1 ; [#uses=1 type=[4 x i8]*]
@p_str14 = private unnamed_addr constant [1 x i8] zeroinitializer, align 1 ; [#uses=3 type=[1 x i8]*]
@p_str13 = private unnamed_addr constant [1 x i8] zeroinitializer, align 1 ; [#uses=3 type=[1 x i8]*]
@p_str115 = private unnamed_addr constant [9 x i8] c"montMult\00", align 1 ; [#uses=0 type=[9 x i8]*]
@ModExp_montMult.str = internal unnamed_addr constant [16 x i8] c"ModExp_montMult\00" ; [#uses=1 type=[16 x i8]*]

; [#uses=3]
define internal fastcc i1024 @ModExp_montMult(i1024 %X0_V, i1024 %Y0_V, i1024 %M0_V) readnone {
  call void (...)* @_ssdm_op_SpecResourceLimit(i32 256, [4 x i8]* @p_str2, [1 x i8]* @p_str13, [1 x i8]* @p_str13, [1 x i8]* @p_str13) nounwind, !dbg !112 ; [debug line = 7:1]
  %M0_V_read = call i1024 @_ssdm_op_Read.ap_auto.i1024(i1024 %M0_V) ; [#uses=3 type=i1024]
  call void @llvm.dbg.value(metadata !{i1024 %M0_V_read}, i64 0, metadata !796), !dbg !900 ; [debug line = 185:74@13:39] [debug variable = op.V]
  call void @llvm.dbg.value(metadata !{i1024 %M0_V_read}, i64 0, metadata !902), !dbg !905 ; [debug line = 185:74@185:96@13:39] [debug variable = op.V]
  %Y0_V_read = call i1024 @_ssdm_op_Read.ap_auto.i1024(i1024 %Y0_V) ; [#uses=1 type=i1024]
  call void @llvm.dbg.value(metadata !{i1024 %Y0_V_read}, i64 0, metadata !796), !dbg !900 ; [debug line = 185:74@13:39] [debug variable = op.V]
  call void @llvm.dbg.value(metadata !{i1024 %Y0_V_read}, i64 0, metadata !902), !dbg !905 ; [debug line = 185:74@185:96@13:39] [debug variable = op.V]
  %X0_V_read = call i1024 @_ssdm_op_Read.ap_auto.i1024(i1024 %X0_V) ; [#uses=1 type=i1024]
  call void @llvm.dbg.value(metadata !{i1024 %X0_V_read}, i64 0, metadata !796), !dbg !900 ; [debug line = 185:74@13:39] [debug variable = op.V]
  call void @llvm.dbg.value(metadata !{i1024 %X0_V_read}, i64 0, metadata !902), !dbg !905 ; [debug line = 185:74@185:96@13:39] [debug variable = op.V]
  call void @llvm.dbg.value(metadata !{i1024 %X0_V}, i64 0, metadata !796), !dbg !900 ; [debug line = 185:74@13:39] [debug variable = op.V]
  call void @llvm.dbg.value(metadata !{i1024 %X0_V}, i64 0, metadata !902), !dbg !905 ; [debug line = 185:74@185:96@13:39] [debug variable = op.V]
  %X_V = zext i1024 %X0_V_read to i1026, !dbg !907 ; [#uses=1 type=i1026] [debug line = 185:80@185:96@13:39]
  call void @llvm.dbg.value(metadata !{i1026 %X_V}, i64 0, metadata !909), !dbg !907 ; [debug line = 185:80@185:96@13:39] [debug variable = X.V]
  call void @llvm.dbg.value(metadata !{i1024 %Y0_V}, i64 0, metadata !796), !dbg !900 ; [debug line = 185:74@13:39] [debug variable = op.V]
  call void @llvm.dbg.value(metadata !{i1024 %Y0_V}, i64 0, metadata !902), !dbg !905 ; [debug line = 185:74@185:96@13:39] [debug variable = op.V]
  %Y_V = zext i1024 %Y0_V_read to i1026, !dbg !907 ; [#uses=1 type=i1026] [debug line = 185:80@185:96@13:39]
  call void @llvm.dbg.value(metadata !{i1026 %Y_V}, i64 0, metadata !917), !dbg !907 ; [debug line = 185:80@185:96@13:39] [debug variable = Y.V]
  call void @llvm.dbg.value(metadata !{i1024 %M0_V}, i64 0, metadata !796), !dbg !900 ; [debug line = 185:74@13:39] [debug variable = op.V]
  call void @llvm.dbg.value(metadata !{i1024 %M0_V}, i64 0, metadata !902), !dbg !905 ; [debug line = 185:74@185:96@13:39] [debug variable = op.V]
  %M_V = zext i1024 %M0_V_read to i1026, !dbg !907 ; [#uses=1 type=i1026] [debug line = 185:80@185:96@13:39]
  %M_V_cast = zext i1024 %M0_V_read to i1025, !dbg !907 ; [#uses=1 type=i1025] [debug line = 185:80@185:96@13:39]
  call void @llvm.dbg.value(metadata !{i1026 %M_V}, i64 0, metadata !919), !dbg !907 ; [debug line = 185:80@185:96@13:39] [debug variable = M.V]
  br label %1, !dbg !921                          ; [debug line = 16:7]

; <label>:1                                       ; preds = %_ZrsILi1026ELb0EE11ap_int_baseIXT_EXT0_EXleT_Li64EEERKS1_i.exit, %0
  %p_s = phi i1025 [ 0, %0 ], [ %tmp_5, %_ZrsILi1026ELb0EE11ap_int_baseIXT_EXT0_EXleT_Li64EEERKS1_i.exit ] ; [#uses=4 type=i1025]
  %i_assign = phi i11 [ 0, %0 ], [ %i, %_ZrsILi1026ELb0EE11ap_int_baseIXT_EXT0_EXleT_Li64EEERKS1_i.exit ] ; [#uses=3 type=i11]
  %p_cast = zext i1025 %p_s to i1026, !dbg !921   ; [#uses=2 type=i1026] [debug line = 16:7]
  %i_assign_cast1 = zext i11 %i_assign to i32, !dbg !921 ; [#uses=1 type=i32] [debug line = 16:7]
  %exitcond = icmp eq i11 %i_assign, -1024, !dbg !921 ; [#uses=1 type=i1] [debug line = 16:7]
  %empty = call i32 (...)* @_ssdm_op_SpecLoopTripCount(i64 1024, i64 1024, i64 1024) ; [#uses=0 type=i32]
  %i = add i11 %i_assign, 1, !dbg !923            ; [#uses=1 type=i11] [debug line = 16:20]
  br i1 %exitcond, label %2, label %_ZrsILi1026ELb0EE11ap_int_baseIXT_EXT0_EXleT_Li64EEERKS1_i.exit, !dbg !921 ; [debug line = 16:7]

_ZrsILi1026ELb0EE11ap_int_baseIXT_EXT0_EXleT_Li64EEERKS1_i.exit: ; preds = %1
  call void @llvm.dbg.value(metadata !{i11 %i_assign}, i64 0, metadata !924), !dbg !926 ; [debug line = 2669:58@19:7] [debug variable = i]
  call void @llvm.dbg.value(metadata !{i1026 %X_V}, i64 0, metadata !929), !dbg !932 ; [debug line = 2671:163@19:7] [debug variable = __Val2__]
  %tmp_7 = call i1 @_ssdm_op_BitSelect.i1.i1026.i32(i1026 %X_V, i32 %i_assign_cast1), !dbg !933 ; [#uses=1 type=i1] [debug line = 2671:165@19:7]
  %S_V = add i1026 %Y_V, %p_cast, !dbg !934       ; [#uses=1 type=i1026] [debug line = 2763:147@20:4]
  call void @llvm.dbg.value(metadata !{i1026 %S_V}, i64 0, metadata !1558), !dbg !934 ; [debug line = 2763:147@20:4] [debug variable = S.V]
  %p_Val2_1 = select i1 %tmp_7, i1026 %S_V, i1026 %p_cast, !dbg !927 ; [#uses=3 type=i1026] [debug line = 19:7]
  call void @llvm.dbg.value(metadata !{i1026 %p_Val2_1}, i64 0, metadata !929), !dbg !1560 ; [debug line = 2671:163@22:7] [debug variable = __Val2__]
  %tmp_8 = trunc i1026 %p_Val2_1 to i1, !dbg !1562 ; [#uses=1 type=i1] [debug line = 2671:165@22:7]
  %S_V_1 = add i1026 %M_V, %p_Val2_1, !dbg !1563  ; [#uses=1 type=i1026] [debug line = 2763:147@23:4]
  call void @llvm.dbg.value(metadata !{i1026 %S_V_1}, i64 0, metadata !1558), !dbg !1563 ; [debug line = 2763:147@23:4] [debug variable = S.V]
  %tmp_2 = call i1025 @_ssdm_op_PartSelect.i1025.i1026.i32.i32(i1026 %S_V_1, i32 1, i32 1025), !dbg !1566 ; [#uses=1 type=i1025] [debug line = 3526:0@25:7]
  %tmp_3 = call i1025 @_ssdm_op_PartSelect.i1025.i1026.i32.i32(i1026 %p_Val2_1, i32 1, i32 1025), !dbg !1566 ; [#uses=1 type=i1025] [debug line = 3526:0@25:7]
  %tmp_5 = select i1 %tmp_8, i1025 %tmp_2, i1025 %tmp_3, !dbg !1561 ; [#uses=1 type=i1025] [debug line = 22:7]
  call void @llvm.dbg.value(metadata !{i11 %i}, i64 0, metadata !1572), !dbg !923 ; [debug line = 16:20] [debug variable = i]
  br label %1, !dbg !923                          ; [debug line = 16:20]

; <label>:2                                       ; preds = %1
  %tmp = icmp ult i1025 %p_s, %M_V_cast, !dbg !1573 ; [#uses=1 type=i1] [debug line = 2934:9@29:6]
  %tmp_1 = trunc i1025 %p_s to i1024, !dbg !1577  ; [#uses=1 type=i1024] [debug line = 2764:147@31:3]
  %tmp_4 = trunc i1025 %p_s to i1024, !dbg !1582  ; [#uses=1 type=i1024] [debug line = 939:85@2422:19@197:102@197:103@34:13]
  %tmp_6 = sub i1024 %tmp_1, %M0_V_read, !dbg !1582 ; [#uses=1 type=i1024] [debug line = 939:85@2422:19@197:102@197:103@34:13]
  %ssdm_int_V_write_assign = select i1 %tmp, i1024 %tmp_4, i1024 %tmp_6, !dbg !1576 ; [#uses=1 type=i1024] [debug line = 29:6]
  call void @llvm.dbg.value(metadata !{i1024 %ssdm_int_V_write_assign}, i64 0, metadata !1596), !dbg !1601 ; [debug line = 276:53@34:13] [debug variable = ssdm_int<1024 + 1024 * 0, false>.V]
  ret i1024 %ssdm_int_V_write_assign, !dbg !1602  ; [debug line = 35:1]
}

; [#uses=1]
declare i1026 @llvm.part.select.i1026(i1026, i32, i32) nounwind readnone

; [#uses=29]
declare void @llvm.dbg.value(metadata, i64, metadata) nounwind readnone

; [#uses=1]
declare void @llvm.dbg.declare(metadata, metadata) nounwind readnone

; [#uses=1]
define weak void @_ssdm_op_Write.ap_auto.i1024P(i1024*, i1024) {
entry:
  store i1024 %1, i1024* %0
  ret void
}

; [#uses=1]
define weak void @_ssdm_op_SpecTopModule(...) {
entry:
  ret void
}

; [#uses=2]
define weak void @_ssdm_op_SpecResourceLimit(...) nounwind {
entry:
  ret void
}

; [#uses=2]
define weak i32 @_ssdm_op_SpecLoopTripCount(...) {
entry:
  ret i32 0
}

; [#uses=6]
define weak void @_ssdm_op_SpecBitsMap(...) {
entry:
  ret void
}

; [#uses=7]
define weak i1024 @_ssdm_op_Read.ap_auto.i1024(i1024) {
entry:
  ret i1024 %0
}

; [#uses=2]
define weak i1025 @_ssdm_op_PartSelect.i1025.i1026.i32.i32(i1026, i32, i32) nounwind readnone {
entry:
  %empty = call i1026 @llvm.part.select.i1026(i1026 %0, i32 %1, i32 %2) ; [#uses=1 type=i1026]
  %empty_5 = trunc i1026 %empty to i1025          ; [#uses=1 type=i1025]
  ret i1025 %empty_5
}

; [#uses=0]
declare i1024 @_ssdm_op_PartSelect.i1024.i1025.i32.i32(i1025, i32, i32) nounwind readnone

; [#uses=0]
declare i1 @_ssdm_op_PartSelect.i1.i1026.i32.i32(i1026, i32, i32) nounwind readnone

; [#uses=1]
define weak i1 @_ssdm_op_BitSelect.i1.i11.i32(i11, i32) nounwind readnone {
entry:
  %empty = trunc i32 %1 to i11                    ; [#uses=1 type=i11]
  %empty_6 = shl i11 1, %empty                    ; [#uses=1 type=i11]
  %empty_7 = and i11 %0, %empty_6                 ; [#uses=1 type=i11]
  %empty_8 = icmp ne i11 %empty_7, 0              ; [#uses=1 type=i1]
  ret i1 %empty_8
}

; [#uses=1]
define weak i1 @_ssdm_op_BitSelect.i1.i1026.i32(i1026, i32) nounwind readnone {
entry:
  %empty = zext i32 %1 to i1026                   ; [#uses=1 type=i1026]
  %empty_9 = shl i1026 1, %empty                  ; [#uses=1 type=i1026]
  %empty_10 = and i1026 %0, %empty_9              ; [#uses=1 type=i1026]
  %empty_11 = icmp ne i1026 %empty_10, 0          ; [#uses=1 type=i1]
  ret i1 %empty_11
}

; [#uses=1]
define weak i1 @_ssdm_op_BitSelect.i1.i1024.i32(i1024, i32) nounwind readnone {
entry:
  %empty = zext i32 %1 to i1024                   ; [#uses=1 type=i1024]
  %empty_12 = shl i1024 1, %empty                 ; [#uses=1 type=i1024]
  %empty_13 = and i1024 %0, %empty_12             ; [#uses=1 type=i1024]
  %empty_14 = icmp ne i1024 %empty_13, 0          ; [#uses=1 type=i1]
  ret i1 %empty_14
}

; [#uses=1]
declare void @_GLOBAL__I_a7() nounwind section ".text.startup"

; [#uses=1]
declare void @_GLOBAL__I_a19() nounwind section ".text.startup"

; [#uses=1]
declare void @_GLOBAL__I_a12() nounwind section ".text.startup"

; [#uses=1]
declare void @_GLOBAL__I_a() nounwind section ".text.startup"

; [#uses=0]
define void @ModExp(i1024 %M_V, i1024 %e_V, i1024 %n_V, i1024 %Mbar_V, i1024 %xbar_in_V, i1024* %out_V) {
  %xbar_V = alloca i1024                          ; [#uses=5 type=i1024*]
  call void @llvm.dbg.declare(metadata !{i1024* %xbar_V}, metadata !1603) ; [debug variable = xbar.V]
  call void (...)* @_ssdm_op_SpecBitsMap(i1024 %M_V), !map !1940
  call void (...)* @_ssdm_op_SpecBitsMap(i1024 %e_V), !map !1946
  call void (...)* @_ssdm_op_SpecBitsMap(i1024 %n_V), !map !1950
  call void (...)* @_ssdm_op_SpecBitsMap(i1024 %Mbar_V), !map !1954
  call void (...)* @_ssdm_op_SpecBitsMap(i1024 %xbar_in_V), !map !1958
  call void (...)* @_ssdm_op_SpecBitsMap(i1024* %out_V), !map !1962
  call void (...)* @_ssdm_op_SpecTopModule([7 x i8]* @ModExp_str) nounwind
  %xbar_in_V_read = call i1024 @_ssdm_op_Read.ap_auto.i1024(i1024 %xbar_in_V) ; [#uses=1 type=i1024]
  %Mbar_V_read = call i1024 @_ssdm_op_Read.ap_auto.i1024(i1024 %Mbar_V) ; [#uses=1 type=i1024]
  %n_V_read = call i1024 @_ssdm_op_Read.ap_auto.i1024(i1024 %n_V) ; [#uses=3 type=i1024]
  %e_V_read = call i1024 @_ssdm_op_Read.ap_auto.i1024(i1024 %e_V) ; [#uses=1 type=i1024]
  call void @llvm.dbg.value(metadata !{i1024* %out_V}, i64 0, metadata !1968), !dbg !1971 ; [debug line = 8:53] [debug variable = out.V]
  call void (...)* @_ssdm_op_SpecResourceLimit(i32 1, [1 x i8]* @p_str14, [1 x i8]* @p_str14, [16 x i8]* @ModExp_montMult.str, [1 x i8]* @p_str14) nounwind, !dbg !1972 ; [debug line = 12:1]
  call void @llvm.dbg.value(metadata !{i1024 %xbar_in_V}, i64 0, metadata !1603), !dbg !1973 ; [debug line = 14:27] [debug variable = xbar.V]
  store i1024 %xbar_in_V_read, i1024* %xbar_V
  br label %1, !dbg !1974                         ; [debug line = 32:7]

; <label>:1                                       ; preds = %._crit_edge, %0
  %i_assign = phi i11 [ 1023, %0 ], [ %i, %._crit_edge ] ; [#uses=3 type=i11]
  %i_assign_cast = sext i11 %i_assign to i32, !dbg !1974 ; [#uses=1 type=i32] [debug line = 32:7]
  %tmp = call i1 @_ssdm_op_BitSelect.i1.i11.i32(i11 %i_assign, i32 10), !dbg !1974 ; [#uses=1 type=i1] [debug line = 32:7]
  %empty = call i32 (...)* @_ssdm_op_SpecLoopTripCount(i64 1024, i64 1024, i64 1024) ; [#uses=0 type=i32]
  br i1 %tmp, label %4, label %2, !dbg !1974      ; [debug line = 32:7]

; <label>:2                                       ; preds = %1
  %xbar_V_load_1 = load i1024* %xbar_V, !dbg !1976 ; [#uses=2 type=i1024] [debug line = 34:3]
  %xbar_V_1 = call fastcc i1024 @ModExp_montMult(i1024 %xbar_V_load_1, i1024 %xbar_V_load_1, i1024 %n_V_read), !dbg !1976 ; [#uses=2 type=i1024] [debug line = 34:3]
  call void @llvm.dbg.value(metadata !{i1024 %xbar_V_1}, i64 0, metadata !1603), !dbg !1976 ; [debug line = 34:3] [debug variable = xbar.V]
  call void @llvm.dbg.value(metadata !{i11 %i_assign}, i64 0, metadata !1978), !dbg !1980 ; [debug line = 2669:58@36:7] [debug variable = i]
  call void @llvm.dbg.value(metadata !{i1024 %e_V}, i64 0, metadata !1982), !dbg !1985 ; [debug line = 2671:163@36:7] [debug variable = __Val2__]
  %tmp_9 = call i1 @_ssdm_op_BitSelect.i1.i1024.i32(i1024 %e_V_read, i32 %i_assign_cast), !dbg !1986 ; [#uses=1 type=i1] [debug line = 2671:165@36:7]
  br i1 %tmp_9, label %3, label %._crit_edge.pre, !dbg !1981 ; [debug line = 36:7]

; <label>:3                                       ; preds = %2
  %xbar_V_2 = call fastcc i1024 @ModExp_montMult(i1024 %Mbar_V_read, i1024 %xbar_V_1, i1024 %n_V_read), !dbg !1987 ; [#uses=1 type=i1024] [debug line = 37:4]
  call void @llvm.dbg.value(metadata !{i1024 %xbar_V_2}, i64 0, metadata !1603), !dbg !1987 ; [debug line = 37:4] [debug variable = xbar.V]
  store i1024 %xbar_V_2, i1024* %xbar_V, !dbg !1987 ; [debug line = 37:4]
  br label %._crit_edge, !dbg !1987               ; [debug line = 37:4]

._crit_edge.pre:                                  ; preds = %2
  store i1024 %xbar_V_1, i1024* %xbar_V, !dbg !1976 ; [debug line = 34:3]
  br label %._crit_edge

._crit_edge:                                      ; preds = %._crit_edge.pre, %3
  %i = add i11 %i_assign, -1, !dbg !1988          ; [#uses=1 type=i11] [debug line = 32:24]
  call void @llvm.dbg.value(metadata !{i11 %i}, i64 0, metadata !1989), !dbg !1988 ; [debug line = 32:24] [debug variable = i]
  br label %1, !dbg !1988                         ; [debug line = 32:24]

; <label>:4                                       ; preds = %1
  %xbar_V_load = load i1024* %xbar_V, !dbg !1990  ; [#uses=1 type=i1024] [debug line = 39:2]
  %call_ret3 = call fastcc i1024 @ModExp_montMult(i1024 %xbar_V_load, i1024 1, i1024 %n_V_read), !dbg !1990 ; [#uses=1 type=i1024] [debug line = 39:2]
  call void @_ssdm_op_Write.ap_auto.i1024P(i1024* %out_V, i1024 %call_ret3), !dbg !1990 ; [debug line = 39:2]
  ret void, !dbg !1991                            ; [debug line = 89:1]
}

!opencl.kernels = !{!0, !7, !7, !7, !13, !13, !13, !13, !13, !19, !22, !28, !28, !34, !36, !38, !38, !40, !34, !43, !13, !45, !48, !48, !36, !13, !52, !55, !55, !13, !57, !59, !59, !60, !60, !45, !62, !62, !64, !64, !66, !13, !13, !68, !7, !7, !7, !13, !13, !13, !13, !13, !71, !22, !28, !28, !36, !36, !38, !38, !66, !40, !36, !73, !75, !75, !64, !64, !76, !82, !82, !13, !13, !84, !13, !13, !13, !86, !88, !88, !13, !89, !13, !13, !13, !59, !59, !91, !91, !93, !93, !71, !95, !13, !97, !13, !13, !13, !59, !59, !93, !93, !99, !73, !64, !64, !13, !13}
!hls.encrypted.func = !{}
!llvm.map.gv = !{!105}

!0 = metadata !{null, metadata !1, metadata !2, metadata !3, metadata !4, metadata !5, metadata !6}
!1 = metadata !{metadata !"kernel_arg_addr_space", i32 0, i32 0, i32 0, i32 1}
!2 = metadata !{metadata !"kernel_arg_access_qual", metadata !"none", metadata !"none", metadata !"none", metadata !"none"}
!3 = metadata !{metadata !"kernel_arg_type", metadata !"ap_uint<1024 + 1>", metadata !"ap_uint<1024 + 1>", metadata !"ap_uint<1024 + 1>", metadata !"ap_uint<1024 + 1>*"}
!4 = metadata !{metadata !"kernel_arg_type_qual", metadata !"", metadata !"", metadata !"", metadata !""}
!5 = metadata !{metadata !"kernel_arg_name", metadata !"X", metadata !"Y", metadata !"M", metadata !"outData"}
!6 = metadata !{metadata !"reqd_work_group_size", i32 1, i32 1, i32 1}
!7 = metadata !{null, metadata !8, metadata !9, metadata !10, metadata !11, metadata !12, metadata !6}
!8 = metadata !{metadata !"kernel_arg_addr_space", i32 0}
!9 = metadata !{metadata !"kernel_arg_access_qual", metadata !"none"}
!10 = metadata !{metadata !"kernel_arg_type", metadata !"const ap_range_ref<1026, false> &"}
!11 = metadata !{metadata !"kernel_arg_type_qual", metadata !""}
!12 = metadata !{metadata !"kernel_arg_name", metadata !"ref"}
!13 = metadata !{null, metadata !14, metadata !15, metadata !16, metadata !17, metadata !18, metadata !6}
!14 = metadata !{metadata !"kernel_arg_addr_space"}
!15 = metadata !{metadata !"kernel_arg_access_qual"}
!16 = metadata !{metadata !"kernel_arg_type"}
!17 = metadata !{metadata !"kernel_arg_type_qual"}
!18 = metadata !{metadata !"kernel_arg_name"}
!19 = metadata !{null, metadata !8, metadata !9, metadata !20, metadata !11, metadata !21, metadata !6}
!20 = metadata !{metadata !"kernel_arg_type", metadata !"const ap_uint<1025> &"}
!21 = metadata !{metadata !"kernel_arg_name", metadata !"op2"}
!22 = metadata !{null, metadata !23, metadata !24, metadata !25, metadata !26, metadata !27, metadata !6}
!23 = metadata !{metadata !"kernel_arg_addr_space", i32 0, i32 0}
!24 = metadata !{metadata !"kernel_arg_access_qual", metadata !"none", metadata !"none"}
!25 = metadata !{metadata !"kernel_arg_type", metadata !"int", metadata !"int"}
!26 = metadata !{metadata !"kernel_arg_type_qual", metadata !"", metadata !""}
!27 = metadata !{metadata !"kernel_arg_name", metadata !"Hi", metadata !"Lo"}
!28 = metadata !{null, metadata !29, metadata !30, metadata !31, metadata !32, metadata !33, metadata !6}
!29 = metadata !{metadata !"kernel_arg_addr_space", i32 1, i32 0, i32 0}
!30 = metadata !{metadata !"kernel_arg_access_qual", metadata !"none", metadata !"none", metadata !"none"}
!31 = metadata !{metadata !"kernel_arg_type", metadata !"ap_int_base<1026, false>*", metadata !"int", metadata !"int"}
!32 = metadata !{metadata !"kernel_arg_type_qual", metadata !"", metadata !"", metadata !""}
!33 = metadata !{metadata !"kernel_arg_name", metadata !"bv", metadata !"h", metadata !"l"}
!34 = metadata !{null, metadata !8, metadata !9, metadata !35, metadata !11, metadata !21, metadata !6}
!35 = metadata !{metadata !"kernel_arg_type", metadata !"const ap_int_base<1025, false> &"}
!36 = metadata !{null, metadata !8, metadata !9, metadata !37, metadata !11, metadata !21, metadata !6}
!37 = metadata !{metadata !"kernel_arg_type", metadata !"const ap_int_base<1026, false> &"}
!38 = metadata !{null, metadata !8, metadata !9, metadata !37, metadata !11, metadata !39, metadata !6}
!39 = metadata !{metadata !"kernel_arg_name", metadata !"op"}
!40 = metadata !{null, metadata !23, metadata !24, metadata !41, metadata !26, metadata !42, metadata !6}
!41 = metadata !{metadata !"kernel_arg_type", metadata !"const ap_int_base<1026, false> &", metadata !"int"}
!42 = metadata !{metadata !"kernel_arg_name", metadata !"op", metadata !"op2"}
!43 = metadata !{null, metadata !23, metadata !24, metadata !44, metadata !26, metadata !42, metadata !6}
!44 = metadata !{metadata !"kernel_arg_type", metadata !"const ap_bit_ref<1026, false> &", metadata !"int"}
!45 = metadata !{null, metadata !8, metadata !9, metadata !46, metadata !11, metadata !47, metadata !6}
!46 = metadata !{metadata !"kernel_arg_type", metadata !"int"}
!47 = metadata !{metadata !"kernel_arg_name", metadata !"index"}
!48 = metadata !{null, metadata !49, metadata !24, metadata !50, metadata !26, metadata !51, metadata !6}
!49 = metadata !{metadata !"kernel_arg_addr_space", i32 1, i32 0}
!50 = metadata !{metadata !"kernel_arg_type", metadata !"ap_int_base<1026, false>*", metadata !"int"}
!51 = metadata !{metadata !"kernel_arg_name", metadata !"bv", metadata !"index"}
!52 = metadata !{null, metadata !23, metadata !24, metadata !53, metadata !26, metadata !54, metadata !6}
!53 = metadata !{metadata !"kernel_arg_type", metadata !"_Bool", metadata !"const ap_int_base<1025, false> &"}
!54 = metadata !{metadata !"kernel_arg_name", metadata !"i_op", metadata !"op"}
!55 = metadata !{null, metadata !8, metadata !9, metadata !56, metadata !11, metadata !39, metadata !6}
!56 = metadata !{metadata !"kernel_arg_type", metadata !"_Bool"}
!57 = metadata !{null, metadata !23, metadata !24, metadata !58, metadata !26, metadata !42, metadata !6}
!58 = metadata !{metadata !"kernel_arg_type", metadata !"const ap_int_base<1, false> &", metadata !"const ap_int_base<1025, false> &"}
!59 = metadata !{null, metadata !8, metadata !9, metadata !35, metadata !11, metadata !39, metadata !6}
!60 = metadata !{null, metadata !8, metadata !9, metadata !61, metadata !11, metadata !39, metadata !6}
!61 = metadata !{metadata !"kernel_arg_type", metadata !"const ap_int_base<1, false> &"}
!62 = metadata !{null, metadata !49, metadata !24, metadata !63, metadata !26, metadata !51, metadata !6}
!63 = metadata !{metadata !"kernel_arg_type", metadata !"ap_int_base<1025, false>*", metadata !"int"}
!64 = metadata !{null, metadata !8, metadata !9, metadata !46, metadata !11, metadata !65, metadata !6}
!65 = metadata !{metadata !"kernel_arg_name", metadata !"val"}
!66 = metadata !{null, metadata !8, metadata !9, metadata !67, metadata !11, metadata !21, metadata !6}
!67 = metadata !{metadata !"kernel_arg_type", metadata !"const ap_uint<1026> &"}
!68 = metadata !{null, metadata !1, metadata !2, metadata !69, metadata !4, metadata !70, metadata !6}
!69 = metadata !{metadata !"kernel_arg_type", metadata !"uint1024_t", metadata !"uint1024_t", metadata !"uint1024_t", metadata !"uint1024_t*"}
!70 = metadata !{metadata !"kernel_arg_name", metadata !"X0", metadata !"Y0", metadata !"M0", metadata !"outData"}
!71 = metadata !{null, metadata !8, metadata !9, metadata !72, metadata !11, metadata !21, metadata !6}
!72 = metadata !{metadata !"kernel_arg_type", metadata !"const ap_uint<1024> &"}
!73 = metadata !{null, metadata !8, metadata !9, metadata !46, metadata !11, metadata !74, metadata !6}
!74 = metadata !{metadata !"kernel_arg_name", metadata !"i"}
!75 = metadata !{null, metadata !8, metadata !9, metadata !72, metadata !11, metadata !39, metadata !6}
!76 = metadata !{null, metadata !77, metadata !78, metadata !79, metadata !80, metadata !81, metadata !6}
!77 = metadata !{metadata !"kernel_arg_addr_space", i32 0, i32 0, i32 0, i32 1, i32 1}
!78 = metadata !{metadata !"kernel_arg_access_qual", metadata !"none", metadata !"none", metadata !"none", metadata !"none", metadata !"none"}
!79 = metadata !{metadata !"kernel_arg_type", metadata !"uint1024_t", metadata !"ap_uint<1024 + 1>", metadata !"uint1024_t", metadata !"uint1024_t*", metadata !"uint1024_t*"}
!80 = metadata !{metadata !"kernel_arg_type_qual", metadata !"", metadata !"", metadata !"", metadata !"", metadata !""}
!81 = metadata !{metadata !"kernel_arg_name", metadata !"M", metadata !"r", metadata !"n", metadata !"Mbar", metadata !"xbar"}
!82 = metadata !{null, metadata !8, metadata !9, metadata !83, metadata !11, metadata !39, metadata !6}
!83 = metadata !{metadata !"kernel_arg_type", metadata !"const ap_int_base<1025, true> &"}
!84 = metadata !{null, metadata !23, metadata !24, metadata !85, metadata !26, metadata !42, metadata !6}
!85 = metadata !{metadata !"kernel_arg_type", metadata !"const ap_int_base<1057, true> &", metadata !"const ap_int_base<1024, false> &"}
!86 = metadata !{null, metadata !23, metadata !24, metadata !87, metadata !26, metadata !54, metadata !6}
!87 = metadata !{metadata !"kernel_arg_type", metadata !"int", metadata !"const ap_int_base<1025, false> &"}
!88 = metadata !{null, metadata !8, metadata !9, metadata !46, metadata !11, metadata !39, metadata !6}
!89 = metadata !{null, metadata !23, metadata !24, metadata !90, metadata !26, metadata !42, metadata !6}
!90 = metadata !{metadata !"kernel_arg_type", metadata !"const ap_int_base<32, true> &", metadata !"const ap_int_base<1025, false> &"}
!91 = metadata !{null, metadata !8, metadata !9, metadata !92, metadata !11, metadata !39, metadata !6}
!92 = metadata !{metadata !"kernel_arg_type", metadata !"const ap_int_base<32, true> &"}
!93 = metadata !{null, metadata !8, metadata !9, metadata !94, metadata !11, metadata !39, metadata !6}
!94 = metadata !{metadata !"kernel_arg_type", metadata !"const ap_int_base<1024, false> &"}
!95 = metadata !{null, metadata !23, metadata !24, metadata !96, metadata !26, metadata !42, metadata !6}
!96 = metadata !{metadata !"kernel_arg_type", metadata !"const ap_int_base<2049, false> &", metadata !"const ap_int_base<1024, false> &"}
!97 = metadata !{null, metadata !23, metadata !24, metadata !98, metadata !26, metadata !42, metadata !6}
!98 = metadata !{metadata !"kernel_arg_type", metadata !"const ap_int_base<1024, false> &", metadata !"const ap_int_base<1025, false> &"}
!99 = metadata !{null, metadata !100, metadata !101, metadata !102, metadata !103, metadata !104, metadata !6}
!100 = metadata !{metadata !"kernel_arg_addr_space", i32 0, i32 0, i32 0, i32 0, i32 0, i32 1}
!101 = metadata !{metadata !"kernel_arg_access_qual", metadata !"none", metadata !"none", metadata !"none", metadata !"none", metadata !"none", metadata !"none"}
!102 = metadata !{metadata !"kernel_arg_type", metadata !"uint1024_t", metadata !"uint1024_t", metadata !"uint1024_t", metadata !"uint1024_t", metadata !"uint1024_t", metadata !"uint1024_t*"}
!103 = metadata !{metadata !"kernel_arg_type_qual", metadata !"", metadata !"", metadata !"", metadata !"", metadata !"", metadata !""}
!104 = metadata !{metadata !"kernel_arg_name", metadata !"M", metadata !"e", metadata !"n", metadata !"Mbar", metadata !"xbar_in", metadata !"out"}
!105 = metadata !{metadata !106, [4 x i32]* @llvm_global_ctors_0}
!106 = metadata !{metadata !107}
!107 = metadata !{i32 0, i32 31, metadata !108}
!108 = metadata !{metadata !109}
!109 = metadata !{metadata !"llvm.global_ctors.0", metadata !110, metadata !"", i32 0, i32 31}
!110 = metadata !{metadata !111}
!111 = metadata !{i32 0, i32 3, i32 1}
!112 = metadata !{i32 7, i32 1, metadata !113, null}
!113 = metadata !{i32 786443, metadata !114, i32 6, i32 1, metadata !115, i32 0} ; [ DW_TAG_lexical_block ]
!114 = metadata !{i32 786478, i32 0, metadata !115, metadata !"montMult", metadata !"montMult", metadata !"_Z8montMult7ap_uintILi1024EES0_S0_PS0_", metadata !115, i32 5, metadata !116, i1 false, i1 true, i32 0, i32 0, null, i32 256, i1 false, null, null, null, metadata !136, i32 6} ; [ DW_TAG_subprogram ]
!115 = metadata !{i32 786473, metadata !"ws_rsa64bit/solution1/montMult.cpp", metadata !"/home/brett/workspace/Vivado_WS", null} ; [ DW_TAG_file_type ]
!116 = metadata !{i32 786453, i32 0, metadata !"", i32 0, i32 0, i64 0, i64 0, i64 0, i32 0, null, metadata !117, i32 0, i32 0} ; [ DW_TAG_subroutine_type ]
!117 = metadata !{null, metadata !118, metadata !118, metadata !118, metadata !795}
!118 = metadata !{i32 786454, null, metadata !"uint1024_t", metadata !115, i32 26, i64 0, i64 0, i64 0, i32 0, metadata !119} ; [ DW_TAG_typedef ]
!119 = metadata !{i32 786434, null, metadata !"ap_uint<1024>", metadata !120, i32 180, i64 1024, i64 1024, i32 0, i32 0, null, metadata !121, i32 0, null, metadata !794} ; [ DW_TAG_class_type ]
!120 = metadata !{i32 786473, metadata !"/opt/Xilinx/Vivado_HLS/2016.2/common/technology/autopilot/ap_int.h", metadata !"/home/brett/workspace/Vivado_WS", null} ; [ DW_TAG_file_type ]
!121 = metadata !{metadata !122, metadata !406, metadata !410, metadata !729, metadata !732, metadata !735, metadata !738, metadata !741, metadata !744, metadata !747, metadata !750, metadata !753, metadata !756, metadata !759, metadata !762, metadata !765, metadata !768, metadata !771, metadata !774, metadata !781, metadata !786, metadata !790, metadata !793}
!122 = metadata !{i32 786460, metadata !119, null, metadata !120, i32 0, i64 0, i64 0, i64 0, i32 0, metadata !123} ; [ DW_TAG_inheritance ]
!123 = metadata !{i32 786434, null, metadata !"ap_int_base<1024, false, false>", metadata !124, i32 2341, i64 1024, i64 1024, i32 0, i32 0, null, metadata !125, i32 0, null, metadata !403} ; [ DW_TAG_class_type ]
!124 = metadata !{i32 786473, metadata !"/opt/Xilinx/Vivado_HLS/2016.2/common/technology/autopilot/ap_int_syn.h", metadata !"/home/brett/workspace/Vivado_WS", null} ; [ DW_TAG_file_type ]
!125 = metadata !{metadata !126, metadata !143, metadata !147, metadata !155, metadata !161, metadata !164, metadata !168, metadata !172, metadata !176, metadata !180, metadata !183, metadata !187, metadata !191, metadata !195, metadata !200, metadata !205, metadata !209, metadata !213, metadata !219, metadata !222, metadata !226, metadata !229, metadata !232, metadata !233, metadata !237, metadata !240, metadata !243, metadata !246, metadata !249, metadata !252, metadata !255, metadata !258, metadata !261, metadata !264, metadata !267, metadata !270, metadata !280, metadata !283, metadata !284, metadata !285, metadata !286, metadata !287, metadata !290, metadata !293, metadata !296, metadata !299, metadata !302, metadata !305, metadata !308, metadata !309, metadata !313, metadata !316, metadata !317, metadata !318, metadata !319, metadata !320, metadata !321, metadata !324, metadata !325, metadata !328, metadata !329, metadata !330, metadata !331, metadata !332, metadata !333, metadata !336, metadata !337, metadata !338, metadata !341, metadata !342, metadata !345, metadata !353, metadata !354, metadata !357, metadata !361, metadata !362, metadata !365, metadata !366, metadata !370, metadata !371, metadata !372, metadata !373, metadata !376, metadata !377, metadata !378, metadata !379, metadata !380, metadata !381, metadata !382, metadata !383, metadata !384, metadata !385, metadata !386, metadata !387, metadata !397, metadata !400}
!126 = metadata !{i32 786460, metadata !123, null, metadata !124, i32 0, i64 0, i64 0, i64 0, i32 0, metadata !127} ; [ DW_TAG_inheritance ]
!127 = metadata !{i32 786434, null, metadata !"ssdm_int<1024 + 1024 * 0, false>", metadata !128, i32 1038, i64 1024, i64 1024, i32 0, i32 0, null, metadata !129, i32 0, null, metadata !138} ; [ DW_TAG_class_type ]
!128 = metadata !{i32 786473, metadata !"/opt/Xilinx/Vivado_HLS/2016.2/common/technology/autopilot/etc/autopilot_dt.def", metadata !"/home/brett/workspace/Vivado_WS", null} ; [ DW_TAG_file_type ]
!129 = metadata !{metadata !130, metadata !132}
!130 = metadata !{i32 786445, metadata !127, metadata !"V", metadata !128, i32 1038, i64 1024, i64 1024, i64 0, i32 0, metadata !131} ; [ DW_TAG_member ]
!131 = metadata !{i32 786468, null, metadata !"uint1024", null, i32 0, i64 1024, i64 1024, i64 0, i32 0, i32 7} ; [ DW_TAG_base_type ]
!132 = metadata !{i32 786478, i32 0, metadata !127, metadata !"ssdm_int", metadata !"ssdm_int", metadata !"", metadata !128, i32 1038, metadata !133, i1 false, i1 false, i32 0, i32 0, null, i32 256, i1 false, null, null, i32 0, metadata !136, i32 1038} ; [ DW_TAG_subprogram ]
!133 = metadata !{i32 786453, i32 0, metadata !"", i32 0, i32 0, i64 0, i64 0, i64 0, i32 0, null, metadata !134, i32 0, i32 0} ; [ DW_TAG_subroutine_type ]
!134 = metadata !{null, metadata !135}
!135 = metadata !{i32 786447, i32 0, metadata !"", i32 0, i32 0, i64 64, i64 64, i64 0, i32 64, metadata !127} ; [ DW_TAG_pointer_type ]
!136 = metadata !{metadata !137}
!137 = metadata !{i32 786468}                     ; [ DW_TAG_base_type ]
!138 = metadata !{metadata !139, metadata !141}
!139 = metadata !{i32 786480, null, metadata !"_AP_N", metadata !140, i64 1024, null, i32 0, i32 0} ; [ DW_TAG_template_value_parameter ]
!140 = metadata !{i32 786468, null, metadata !"int", null, i32 0, i64 32, i64 32, i64 0, i32 0, i32 5} ; [ DW_TAG_base_type ]
!141 = metadata !{i32 786480, null, metadata !"_AP_S", metadata !142, i64 0, null, i32 0, i32 0} ; [ DW_TAG_template_value_parameter ]
!142 = metadata !{i32 786468, null, metadata !"bool", null, i32 0, i64 8, i64 8, i64 0, i32 0, i32 2} ; [ DW_TAG_base_type ]
!143 = metadata !{i32 786478, i32 0, metadata !123, metadata !"ap_int_base", metadata !"ap_int_base", metadata !"", metadata !124, i32 2379, metadata !144, i1 false, i1 false, i32 0, i32 0, null, i32 256, i1 false, null, null, i32 0, metadata !136, i32 2379} ; [ DW_TAG_subprogram ]
!144 = metadata !{i32 786453, i32 0, metadata !"", i32 0, i32 0, i64 0, i64 0, i64 0, i32 0, null, metadata !145, i32 0, i32 0} ; [ DW_TAG_subroutine_type ]
!145 = metadata !{null, metadata !146}
!146 = metadata !{i32 786447, i32 0, metadata !"", i32 0, i32 0, i64 64, i64 64, i64 0, i32 64, metadata !123} ; [ DW_TAG_pointer_type ]
!147 = metadata !{i32 786478, i32 0, metadata !123, metadata !"ap_int_base<1024, false>", metadata !"ap_int_base<1024, false>", metadata !"", metadata !124, i32 2391, metadata !148, i1 false, i1 false, i32 0, i32 0, null, i32 256, i1 false, null, metadata !152, i32 0, metadata !136, i32 2391} ; [ DW_TAG_subprogram ]
!148 = metadata !{i32 786453, i32 0, metadata !"", i32 0, i32 0, i64 0, i64 0, i64 0, i32 0, null, metadata !149, i32 0, i32 0} ; [ DW_TAG_subroutine_type ]
!149 = metadata !{null, metadata !146, metadata !150}
!150 = metadata !{i32 786448, null, null, null, i32 0, i64 0, i64 0, i64 0, i32 0, metadata !151} ; [ DW_TAG_reference_type ]
!151 = metadata !{i32 786470, null, metadata !"", null, i32 0, i64 0, i64 0, i64 0, i32 0, metadata !123} ; [ DW_TAG_const_type ]
!152 = metadata !{metadata !153, metadata !154}
!153 = metadata !{i32 786480, null, metadata !"_AP_W2", metadata !140, i64 1024, null, i32 0, i32 0} ; [ DW_TAG_template_value_parameter ]
!154 = metadata !{i32 786480, null, metadata !"_AP_S2", metadata !142, i64 0, null, i32 0, i32 0} ; [ DW_TAG_template_value_parameter ]
!155 = metadata !{i32 786478, i32 0, metadata !123, metadata !"ap_int_base<1024, false>", metadata !"ap_int_base<1024, false>", metadata !"", metadata !124, i32 2394, metadata !156, i1 false, i1 false, i32 0, i32 0, null, i32 256, i1 false, null, metadata !152, i32 0, metadata !136, i32 2394} ; [ DW_TAG_subprogram ]
!156 = metadata !{i32 786453, i32 0, metadata !"", i32 0, i32 0, i64 0, i64 0, i64 0, i32 0, null, metadata !157, i32 0, i32 0} ; [ DW_TAG_subroutine_type ]
!157 = metadata !{null, metadata !146, metadata !158}
!158 = metadata !{i32 786448, null, null, null, i32 0, i64 0, i64 0, i64 0, i32 0, metadata !159} ; [ DW_TAG_reference_type ]
!159 = metadata !{i32 786470, null, metadata !"", null, i32 0, i64 0, i64 0, i64 0, i32 0, metadata !160} ; [ DW_TAG_const_type ]
!160 = metadata !{i32 786485, null, metadata !"", null, i32 0, i64 0, i64 0, i64 0, i32 0, metadata !123} ; [ DW_TAG_volatile_type ]
!161 = metadata !{i32 786478, i32 0, metadata !123, metadata !"ap_int_base", metadata !"ap_int_base", metadata !"", metadata !124, i32 2401, metadata !162, i1 false, i1 false, i32 0, i32 0, null, i32 384, i1 false, null, null, i32 0, metadata !136, i32 2401} ; [ DW_TAG_subprogram ]
!162 = metadata !{i32 786453, i32 0, metadata !"", i32 0, i32 0, i64 0, i64 0, i64 0, i32 0, null, metadata !163, i32 0, i32 0} ; [ DW_TAG_subroutine_type ]
!163 = metadata !{null, metadata !146, metadata !142}
!164 = metadata !{i32 786478, i32 0, metadata !123, metadata !"ap_int_base", metadata !"ap_int_base", metadata !"", metadata !124, i32 2402, metadata !165, i1 false, i1 false, i32 0, i32 0, null, i32 384, i1 false, null, null, i32 0, metadata !136, i32 2402} ; [ DW_TAG_subprogram ]
!165 = metadata !{i32 786453, i32 0, metadata !"", i32 0, i32 0, i64 0, i64 0, i64 0, i32 0, null, metadata !166, i32 0, i32 0} ; [ DW_TAG_subroutine_type ]
!166 = metadata !{null, metadata !146, metadata !167}
!167 = metadata !{i32 786468, null, metadata !"signed char", null, i32 0, i64 8, i64 8, i64 0, i32 0, i32 6} ; [ DW_TAG_base_type ]
!168 = metadata !{i32 786478, i32 0, metadata !123, metadata !"ap_int_base", metadata !"ap_int_base", metadata !"", metadata !124, i32 2403, metadata !169, i1 false, i1 false, i32 0, i32 0, null, i32 384, i1 false, null, null, i32 0, metadata !136, i32 2403} ; [ DW_TAG_subprogram ]
!169 = metadata !{i32 786453, i32 0, metadata !"", i32 0, i32 0, i64 0, i64 0, i64 0, i32 0, null, metadata !170, i32 0, i32 0} ; [ DW_TAG_subroutine_type ]
!170 = metadata !{null, metadata !146, metadata !171}
!171 = metadata !{i32 786468, null, metadata !"unsigned char", null, i32 0, i64 8, i64 8, i64 0, i32 0, i32 8} ; [ DW_TAG_base_type ]
!172 = metadata !{i32 786478, i32 0, metadata !123, metadata !"ap_int_base", metadata !"ap_int_base", metadata !"", metadata !124, i32 2404, metadata !173, i1 false, i1 false, i32 0, i32 0, null, i32 384, i1 false, null, null, i32 0, metadata !136, i32 2404} ; [ DW_TAG_subprogram ]
!173 = metadata !{i32 786453, i32 0, metadata !"", i32 0, i32 0, i64 0, i64 0, i64 0, i32 0, null, metadata !174, i32 0, i32 0} ; [ DW_TAG_subroutine_type ]
!174 = metadata !{null, metadata !146, metadata !175}
!175 = metadata !{i32 786468, null, metadata !"short", null, i32 0, i64 16, i64 16, i64 0, i32 0, i32 5} ; [ DW_TAG_base_type ]
!176 = metadata !{i32 786478, i32 0, metadata !123, metadata !"ap_int_base", metadata !"ap_int_base", metadata !"", metadata !124, i32 2405, metadata !177, i1 false, i1 false, i32 0, i32 0, null, i32 384, i1 false, null, null, i32 0, metadata !136, i32 2405} ; [ DW_TAG_subprogram ]
!177 = metadata !{i32 786453, i32 0, metadata !"", i32 0, i32 0, i64 0, i64 0, i64 0, i32 0, null, metadata !178, i32 0, i32 0} ; [ DW_TAG_subroutine_type ]
!178 = metadata !{null, metadata !146, metadata !179}
!179 = metadata !{i32 786468, null, metadata !"unsigned short", null, i32 0, i64 16, i64 16, i64 0, i32 0, i32 7} ; [ DW_TAG_base_type ]
!180 = metadata !{i32 786478, i32 0, metadata !123, metadata !"ap_int_base", metadata !"ap_int_base", metadata !"", metadata !124, i32 2406, metadata !181, i1 false, i1 false, i32 0, i32 0, null, i32 384, i1 false, null, null, i32 0, metadata !136, i32 2406} ; [ DW_TAG_subprogram ]
!181 = metadata !{i32 786453, i32 0, metadata !"", i32 0, i32 0, i64 0, i64 0, i64 0, i32 0, null, metadata !182, i32 0, i32 0} ; [ DW_TAG_subroutine_type ]
!182 = metadata !{null, metadata !146, metadata !140}
!183 = metadata !{i32 786478, i32 0, metadata !123, metadata !"ap_int_base", metadata !"ap_int_base", metadata !"", metadata !124, i32 2407, metadata !184, i1 false, i1 false, i32 0, i32 0, null, i32 384, i1 false, null, null, i32 0, metadata !136, i32 2407} ; [ DW_TAG_subprogram ]
!184 = metadata !{i32 786453, i32 0, metadata !"", i32 0, i32 0, i64 0, i64 0, i64 0, i32 0, null, metadata !185, i32 0, i32 0} ; [ DW_TAG_subroutine_type ]
!185 = metadata !{null, metadata !146, metadata !186}
!186 = metadata !{i32 786468, null, metadata !"unsigned int", null, i32 0, i64 32, i64 32, i64 0, i32 0, i32 7} ; [ DW_TAG_base_type ]
!187 = metadata !{i32 786478, i32 0, metadata !123, metadata !"ap_int_base", metadata !"ap_int_base", metadata !"", metadata !124, i32 2408, metadata !188, i1 false, i1 false, i32 0, i32 0, null, i32 384, i1 false, null, null, i32 0, metadata !136, i32 2408} ; [ DW_TAG_subprogram ]
!188 = metadata !{i32 786453, i32 0, metadata !"", i32 0, i32 0, i64 0, i64 0, i64 0, i32 0, null, metadata !189, i32 0, i32 0} ; [ DW_TAG_subroutine_type ]
!189 = metadata !{null, metadata !146, metadata !190}
!190 = metadata !{i32 786468, null, metadata !"long int", null, i32 0, i64 64, i64 64, i64 0, i32 0, i32 5} ; [ DW_TAG_base_type ]
!191 = metadata !{i32 786478, i32 0, metadata !123, metadata !"ap_int_base", metadata !"ap_int_base", metadata !"", metadata !124, i32 2409, metadata !192, i1 false, i1 false, i32 0, i32 0, null, i32 384, i1 false, null, null, i32 0, metadata !136, i32 2409} ; [ DW_TAG_subprogram ]
!192 = metadata !{i32 786453, i32 0, metadata !"", i32 0, i32 0, i64 0, i64 0, i64 0, i32 0, null, metadata !193, i32 0, i32 0} ; [ DW_TAG_subroutine_type ]
!193 = metadata !{null, metadata !146, metadata !194}
!194 = metadata !{i32 786468, null, metadata !"long unsigned int", null, i32 0, i64 64, i64 64, i64 0, i32 0, i32 7} ; [ DW_TAG_base_type ]
!195 = metadata !{i32 786478, i32 0, metadata !123, metadata !"ap_int_base", metadata !"ap_int_base", metadata !"", metadata !124, i32 2410, metadata !196, i1 false, i1 false, i32 0, i32 0, null, i32 384, i1 false, null, null, i32 0, metadata !136, i32 2410} ; [ DW_TAG_subprogram ]
!196 = metadata !{i32 786453, i32 0, metadata !"", i32 0, i32 0, i64 0, i64 0, i64 0, i32 0, null, metadata !197, i32 0, i32 0} ; [ DW_TAG_subroutine_type ]
!197 = metadata !{null, metadata !146, metadata !198}
!198 = metadata !{i32 786454, null, metadata !"ap_slong", metadata !124, i32 111, i64 0, i64 0, i64 0, i32 0, metadata !199} ; [ DW_TAG_typedef ]
!199 = metadata !{i32 786468, null, metadata !"long long int", null, i32 0, i64 64, i64 64, i64 0, i32 0, i32 5} ; [ DW_TAG_base_type ]
!200 = metadata !{i32 786478, i32 0, metadata !123, metadata !"ap_int_base", metadata !"ap_int_base", metadata !"", metadata !124, i32 2411, metadata !201, i1 false, i1 false, i32 0, i32 0, null, i32 384, i1 false, null, null, i32 0, metadata !136, i32 2411} ; [ DW_TAG_subprogram ]
!201 = metadata !{i32 786453, i32 0, metadata !"", i32 0, i32 0, i64 0, i64 0, i64 0, i32 0, null, metadata !202, i32 0, i32 0} ; [ DW_TAG_subroutine_type ]
!202 = metadata !{null, metadata !146, metadata !203}
!203 = metadata !{i32 786454, null, metadata !"ap_ulong", metadata !124, i32 110, i64 0, i64 0, i64 0, i32 0, metadata !204} ; [ DW_TAG_typedef ]
!204 = metadata !{i32 786468, null, metadata !"long long unsigned int", null, i32 0, i64 64, i64 64, i64 0, i32 0, i32 7} ; [ DW_TAG_base_type ]
!205 = metadata !{i32 786478, i32 0, metadata !123, metadata !"ap_int_base", metadata !"ap_int_base", metadata !"", metadata !124, i32 2412, metadata !206, i1 false, i1 false, i32 0, i32 0, null, i32 384, i1 false, null, null, i32 0, metadata !136, i32 2412} ; [ DW_TAG_subprogram ]
!206 = metadata !{i32 786453, i32 0, metadata !"", i32 0, i32 0, i64 0, i64 0, i64 0, i32 0, null, metadata !207, i32 0, i32 0} ; [ DW_TAG_subroutine_type ]
!207 = metadata !{null, metadata !146, metadata !208}
!208 = metadata !{i32 786468, null, metadata !"float", null, i32 0, i64 32, i64 32, i64 0, i32 0, i32 4} ; [ DW_TAG_base_type ]
!209 = metadata !{i32 786478, i32 0, metadata !123, metadata !"ap_int_base", metadata !"ap_int_base", metadata !"", metadata !124, i32 2413, metadata !210, i1 false, i1 false, i32 0, i32 0, null, i32 384, i1 false, null, null, i32 0, metadata !136, i32 2413} ; [ DW_TAG_subprogram ]
!210 = metadata !{i32 786453, i32 0, metadata !"", i32 0, i32 0, i64 0, i64 0, i64 0, i32 0, null, metadata !211, i32 0, i32 0} ; [ DW_TAG_subroutine_type ]
!211 = metadata !{null, metadata !146, metadata !212}
!212 = metadata !{i32 786468, null, metadata !"double", null, i32 0, i64 64, i64 64, i64 0, i32 0, i32 4} ; [ DW_TAG_base_type ]
!213 = metadata !{i32 786478, i32 0, metadata !123, metadata !"ap_int_base", metadata !"ap_int_base", metadata !"", metadata !124, i32 2440, metadata !214, i1 false, i1 false, i32 0, i32 0, null, i32 256, i1 false, null, null, i32 0, metadata !136, i32 2440} ; [ DW_TAG_subprogram ]
!214 = metadata !{i32 786453, i32 0, metadata !"", i32 0, i32 0, i64 0, i64 0, i64 0, i32 0, null, metadata !215, i32 0, i32 0} ; [ DW_TAG_subroutine_type ]
!215 = metadata !{null, metadata !146, metadata !216}
!216 = metadata !{i32 786447, null, metadata !"", null, i32 0, i64 64, i64 64, i64 0, i32 0, metadata !217} ; [ DW_TAG_pointer_type ]
!217 = metadata !{i32 786470, null, metadata !"", null, i32 0, i64 0, i64 0, i64 0, i32 0, metadata !218} ; [ DW_TAG_const_type ]
!218 = metadata !{i32 786468, null, metadata !"char", null, i32 0, i64 8, i64 8, i64 0, i32 0, i32 6} ; [ DW_TAG_base_type ]
!219 = metadata !{i32 786478, i32 0, metadata !123, metadata !"ap_int_base", metadata !"ap_int_base", metadata !"", metadata !124, i32 2447, metadata !220, i1 false, i1 false, i32 0, i32 0, null, i32 256, i1 false, null, null, i32 0, metadata !136, i32 2447} ; [ DW_TAG_subprogram ]
!220 = metadata !{i32 786453, i32 0, metadata !"", i32 0, i32 0, i64 0, i64 0, i64 0, i32 0, null, metadata !221, i32 0, i32 0} ; [ DW_TAG_subroutine_type ]
!221 = metadata !{null, metadata !146, metadata !216, metadata !167}
!222 = metadata !{i32 786478, i32 0, metadata !123, metadata !"read", metadata !"read", metadata !"_ZNV11ap_int_baseILi1024ELb0ELb0EE4readEv", metadata !124, i32 2468, metadata !223, i1 false, i1 false, i32 0, i32 0, null, i32 256, i1 false, null, null, i32 0, metadata !136, i32 2468} ; [ DW_TAG_subprogram ]
!223 = metadata !{i32 786453, i32 0, metadata !"", i32 0, i32 0, i64 0, i64 0, i64 0, i32 0, null, metadata !224, i32 0, i32 0} ; [ DW_TAG_subroutine_type ]
!224 = metadata !{metadata !123, metadata !225}
!225 = metadata !{i32 786447, i32 0, metadata !"", i32 0, i32 0, i64 64, i64 64, i64 0, i32 64, metadata !160} ; [ DW_TAG_pointer_type ]
!226 = metadata !{i32 786478, i32 0, metadata !123, metadata !"write", metadata !"write", metadata !"_ZNV11ap_int_baseILi1024ELb0ELb0EE5writeERKS0_", metadata !124, i32 2474, metadata !227, i1 false, i1 false, i32 0, i32 0, null, i32 256, i1 false, null, null, i32 0, metadata !136, i32 2474} ; [ DW_TAG_subprogram ]
!227 = metadata !{i32 786453, i32 0, metadata !"", i32 0, i32 0, i64 0, i64 0, i64 0, i32 0, null, metadata !228, i32 0, i32 0} ; [ DW_TAG_subroutine_type ]
!228 = metadata !{null, metadata !225, metadata !150}
!229 = metadata !{i32 786478, i32 0, metadata !123, metadata !"operator=", metadata !"operator=", metadata !"_ZNV11ap_int_baseILi1024ELb0ELb0EEaSERVKS0_", metadata !124, i32 2486, metadata !230, i1 false, i1 false, i32 0, i32 0, null, i32 256, i1 false, null, null, i32 0, metadata !136, i32 2486} ; [ DW_TAG_subprogram ]
!230 = metadata !{i32 786453, i32 0, metadata !"", i32 0, i32 0, i64 0, i64 0, i64 0, i32 0, null, metadata !231, i32 0, i32 0} ; [ DW_TAG_subroutine_type ]
!231 = metadata !{null, metadata !225, metadata !158}
!232 = metadata !{i32 786478, i32 0, metadata !123, metadata !"operator=", metadata !"operator=", metadata !"_ZNV11ap_int_baseILi1024ELb0ELb0EEaSERKS0_", metadata !124, i32 2495, metadata !227, i1 false, i1 false, i32 0, i32 0, null, i32 256, i1 false, null, null, i32 0, metadata !136, i32 2495} ; [ DW_TAG_subprogram ]
!233 = metadata !{i32 786478, i32 0, metadata !123, metadata !"operator=", metadata !"operator=", metadata !"_ZN11ap_int_baseILi1024ELb0ELb0EEaSERVKS0_", metadata !124, i32 2518, metadata !234, i1 false, i1 false, i32 0, i32 0, null, i32 256, i1 false, null, null, i32 0, metadata !136, i32 2518} ; [ DW_TAG_subprogram ]
!234 = metadata !{i32 786453, i32 0, metadata !"", i32 0, i32 0, i64 0, i64 0, i64 0, i32 0, null, metadata !235, i32 0, i32 0} ; [ DW_TAG_subroutine_type ]
!235 = metadata !{metadata !236, metadata !146, metadata !158}
!236 = metadata !{i32 786448, null, null, null, i32 0, i64 0, i64 0, i64 0, i32 0, metadata !123} ; [ DW_TAG_reference_type ]
!237 = metadata !{i32 786478, i32 0, metadata !123, metadata !"operator=", metadata !"operator=", metadata !"_ZN11ap_int_baseILi1024ELb0ELb0EEaSERKS0_", metadata !124, i32 2523, metadata !238, i1 false, i1 false, i32 0, i32 0, null, i32 256, i1 false, null, null, i32 0, metadata !136, i32 2523} ; [ DW_TAG_subprogram ]
!238 = metadata !{i32 786453, i32 0, metadata !"", i32 0, i32 0, i64 0, i64 0, i64 0, i32 0, null, metadata !239, i32 0, i32 0} ; [ DW_TAG_subroutine_type ]
!239 = metadata !{metadata !236, metadata !146, metadata !150}
!240 = metadata !{i32 786478, i32 0, metadata !123, metadata !"operator=", metadata !"operator=", metadata !"_ZN11ap_int_baseILi1024ELb0ELb0EEaSEPKc", metadata !124, i32 2527, metadata !241, i1 false, i1 false, i32 0, i32 0, null, i32 256, i1 false, null, null, i32 0, metadata !136, i32 2527} ; [ DW_TAG_subprogram ]
!241 = metadata !{i32 786453, i32 0, metadata !"", i32 0, i32 0, i64 0, i64 0, i64 0, i32 0, null, metadata !242, i32 0, i32 0} ; [ DW_TAG_subroutine_type ]
!242 = metadata !{metadata !236, metadata !146, metadata !216}
!243 = metadata !{i32 786478, i32 0, metadata !123, metadata !"set", metadata !"set", metadata !"_ZN11ap_int_baseILi1024ELb0ELb0EE3setEPKca", metadata !124, i32 2535, metadata !244, i1 false, i1 false, i32 0, i32 0, null, i32 256, i1 false, null, null, i32 0, metadata !136, i32 2535} ; [ DW_TAG_subprogram ]
!244 = metadata !{i32 786453, i32 0, metadata !"", i32 0, i32 0, i64 0, i64 0, i64 0, i32 0, null, metadata !245, i32 0, i32 0} ; [ DW_TAG_subroutine_type ]
!245 = metadata !{metadata !236, metadata !146, metadata !216, metadata !167}
!246 = metadata !{i32 786478, i32 0, metadata !123, metadata !"operator=", metadata !"operator=", metadata !"_ZN11ap_int_baseILi1024ELb0ELb0EEaSEc", metadata !124, i32 2549, metadata !247, i1 false, i1 false, i32 0, i32 0, null, i32 256, i1 false, null, null, i32 0, metadata !136, i32 2549} ; [ DW_TAG_subprogram ]
!247 = metadata !{i32 786453, i32 0, metadata !"", i32 0, i32 0, i64 0, i64 0, i64 0, i32 0, null, metadata !248, i32 0, i32 0} ; [ DW_TAG_subroutine_type ]
!248 = metadata !{metadata !236, metadata !146, metadata !218}
!249 = metadata !{i32 786478, i32 0, metadata !123, metadata !"operator=", metadata !"operator=", metadata !"_ZN11ap_int_baseILi1024ELb0ELb0EEaSEh", metadata !124, i32 2550, metadata !250, i1 false, i1 false, i32 0, i32 0, null, i32 256, i1 false, null, null, i32 0, metadata !136, i32 2550} ; [ DW_TAG_subprogram ]
!250 = metadata !{i32 786453, i32 0, metadata !"", i32 0, i32 0, i64 0, i64 0, i64 0, i32 0, null, metadata !251, i32 0, i32 0} ; [ DW_TAG_subroutine_type ]
!251 = metadata !{metadata !236, metadata !146, metadata !171}
!252 = metadata !{i32 786478, i32 0, metadata !123, metadata !"operator=", metadata !"operator=", metadata !"_ZN11ap_int_baseILi1024ELb0ELb0EEaSEs", metadata !124, i32 2551, metadata !253, i1 false, i1 false, i32 0, i32 0, null, i32 256, i1 false, null, null, i32 0, metadata !136, i32 2551} ; [ DW_TAG_subprogram ]
!253 = metadata !{i32 786453, i32 0, metadata !"", i32 0, i32 0, i64 0, i64 0, i64 0, i32 0, null, metadata !254, i32 0, i32 0} ; [ DW_TAG_subroutine_type ]
!254 = metadata !{metadata !236, metadata !146, metadata !175}
!255 = metadata !{i32 786478, i32 0, metadata !123, metadata !"operator=", metadata !"operator=", metadata !"_ZN11ap_int_baseILi1024ELb0ELb0EEaSEt", metadata !124, i32 2552, metadata !256, i1 false, i1 false, i32 0, i32 0, null, i32 256, i1 false, null, null, i32 0, metadata !136, i32 2552} ; [ DW_TAG_subprogram ]
!256 = metadata !{i32 786453, i32 0, metadata !"", i32 0, i32 0, i64 0, i64 0, i64 0, i32 0, null, metadata !257, i32 0, i32 0} ; [ DW_TAG_subroutine_type ]
!257 = metadata !{metadata !236, metadata !146, metadata !179}
!258 = metadata !{i32 786478, i32 0, metadata !123, metadata !"operator=", metadata !"operator=", metadata !"_ZN11ap_int_baseILi1024ELb0ELb0EEaSEi", metadata !124, i32 2553, metadata !259, i1 false, i1 false, i32 0, i32 0, null, i32 256, i1 false, null, null, i32 0, metadata !136, i32 2553} ; [ DW_TAG_subprogram ]
!259 = metadata !{i32 786453, i32 0, metadata !"", i32 0, i32 0, i64 0, i64 0, i64 0, i32 0, null, metadata !260, i32 0, i32 0} ; [ DW_TAG_subroutine_type ]
!260 = metadata !{metadata !236, metadata !146, metadata !140}
!261 = metadata !{i32 786478, i32 0, metadata !123, metadata !"operator=", metadata !"operator=", metadata !"_ZN11ap_int_baseILi1024ELb0ELb0EEaSEj", metadata !124, i32 2554, metadata !262, i1 false, i1 false, i32 0, i32 0, null, i32 256, i1 false, null, null, i32 0, metadata !136, i32 2554} ; [ DW_TAG_subprogram ]
!262 = metadata !{i32 786453, i32 0, metadata !"", i32 0, i32 0, i64 0, i64 0, i64 0, i32 0, null, metadata !263, i32 0, i32 0} ; [ DW_TAG_subroutine_type ]
!263 = metadata !{metadata !236, metadata !146, metadata !186}
!264 = metadata !{i32 786478, i32 0, metadata !123, metadata !"operator=", metadata !"operator=", metadata !"_ZN11ap_int_baseILi1024ELb0ELb0EEaSEx", metadata !124, i32 2555, metadata !265, i1 false, i1 false, i32 0, i32 0, null, i32 256, i1 false, null, null, i32 0, metadata !136, i32 2555} ; [ DW_TAG_subprogram ]
!265 = metadata !{i32 786453, i32 0, metadata !"", i32 0, i32 0, i64 0, i64 0, i64 0, i32 0, null, metadata !266, i32 0, i32 0} ; [ DW_TAG_subroutine_type ]
!266 = metadata !{metadata !236, metadata !146, metadata !198}
!267 = metadata !{i32 786478, i32 0, metadata !123, metadata !"operator=", metadata !"operator=", metadata !"_ZN11ap_int_baseILi1024ELb0ELb0EEaSEy", metadata !124, i32 2556, metadata !268, i1 false, i1 false, i32 0, i32 0, null, i32 256, i1 false, null, null, i32 0, metadata !136, i32 2556} ; [ DW_TAG_subprogram ]
!268 = metadata !{i32 786453, i32 0, metadata !"", i32 0, i32 0, i64 0, i64 0, i64 0, i32 0, null, metadata !269, i32 0, i32 0} ; [ DW_TAG_subroutine_type ]
!269 = metadata !{metadata !236, metadata !146, metadata !203}
!270 = metadata !{i32 786478, i32 0, metadata !123, metadata !"operator unsigned long long", metadata !"operator unsigned long long", metadata !"_ZNK11ap_int_baseILi1024ELb0ELb0EEcvyEv", metadata !124, i32 2595, metadata !271, i1 false, i1 false, i32 0, i32 0, null, i32 256, i1 false, null, null, i32 0, metadata !136, i32 2595} ; [ DW_TAG_subprogram ]
!271 = metadata !{i32 786453, i32 0, metadata !"", i32 0, i32 0, i64 0, i64 0, i64 0, i32 0, null, metadata !272, i32 0, i32 0} ; [ DW_TAG_subroutine_type ]
!272 = metadata !{metadata !273, metadata !279}
!273 = metadata !{i32 786454, metadata !123, metadata !"RetType", metadata !124, i32 2345, i64 0, i64 0, i64 0, i32 0, metadata !274} ; [ DW_TAG_typedef ]
!274 = metadata !{i32 786454, metadata !275, metadata !"Type", metadata !124, i32 1363, i64 0, i64 0, i64 0, i32 0, metadata !203} ; [ DW_TAG_typedef ]
!275 = metadata !{i32 786434, null, metadata !"retval<8, false>", metadata !124, i32 1362, i64 8, i64 8, i32 0, i32 0, null, metadata !276, i32 0, null, metadata !277} ; [ DW_TAG_class_type ]
!276 = metadata !{i32 0}
!277 = metadata !{metadata !278, metadata !141}
!278 = metadata !{i32 786480, null, metadata !"_AP_N", metadata !140, i64 8, null, i32 0, i32 0} ; [ DW_TAG_template_value_parameter ]
!279 = metadata !{i32 786447, i32 0, metadata !"", i32 0, i32 0, i64 64, i64 64, i64 0, i32 64, metadata !151} ; [ DW_TAG_pointer_type ]
!280 = metadata !{i32 786478, i32 0, metadata !123, metadata !"to_bool", metadata !"to_bool", metadata !"_ZNK11ap_int_baseILi1024ELb0ELb0EE7to_boolEv", metadata !124, i32 2601, metadata !281, i1 false, i1 false, i32 0, i32 0, null, i32 256, i1 false, null, null, i32 0, metadata !136, i32 2601} ; [ DW_TAG_subprogram ]
!281 = metadata !{i32 786453, i32 0, metadata !"", i32 0, i32 0, i64 0, i64 0, i64 0, i32 0, null, metadata !282, i32 0, i32 0} ; [ DW_TAG_subroutine_type ]
!282 = metadata !{metadata !142, metadata !279}
!283 = metadata !{i32 786478, i32 0, metadata !123, metadata !"to_uchar", metadata !"to_uchar", metadata !"_ZNK11ap_int_baseILi1024ELb0ELb0EE8to_ucharEv", metadata !124, i32 2602, metadata !281, i1 false, i1 false, i32 0, i32 0, null, i32 256, i1 false, null, null, i32 0, metadata !136, i32 2602} ; [ DW_TAG_subprogram ]
!284 = metadata !{i32 786478, i32 0, metadata !123, metadata !"to_char", metadata !"to_char", metadata !"_ZNK11ap_int_baseILi1024ELb0ELb0EE7to_charEv", metadata !124, i32 2603, metadata !281, i1 false, i1 false, i32 0, i32 0, null, i32 256, i1 false, null, null, i32 0, metadata !136, i32 2603} ; [ DW_TAG_subprogram ]
!285 = metadata !{i32 786478, i32 0, metadata !123, metadata !"to_ushort", metadata !"to_ushort", metadata !"_ZNK11ap_int_baseILi1024ELb0ELb0EE9to_ushortEv", metadata !124, i32 2604, metadata !281, i1 false, i1 false, i32 0, i32 0, null, i32 256, i1 false, null, null, i32 0, metadata !136, i32 2604} ; [ DW_TAG_subprogram ]
!286 = metadata !{i32 786478, i32 0, metadata !123, metadata !"to_short", metadata !"to_short", metadata !"_ZNK11ap_int_baseILi1024ELb0ELb0EE8to_shortEv", metadata !124, i32 2605, metadata !281, i1 false, i1 false, i32 0, i32 0, null, i32 256, i1 false, null, null, i32 0, metadata !136, i32 2605} ; [ DW_TAG_subprogram ]
!287 = metadata !{i32 786478, i32 0, metadata !123, metadata !"to_int", metadata !"to_int", metadata !"_ZNK11ap_int_baseILi1024ELb0ELb0EE6to_intEv", metadata !124, i32 2606, metadata !288, i1 false, i1 false, i32 0, i32 0, null, i32 256, i1 false, null, null, i32 0, metadata !136, i32 2606} ; [ DW_TAG_subprogram ]
!288 = metadata !{i32 786453, i32 0, metadata !"", i32 0, i32 0, i64 0, i64 0, i64 0, i32 0, null, metadata !289, i32 0, i32 0} ; [ DW_TAG_subroutine_type ]
!289 = metadata !{metadata !140, metadata !279}
!290 = metadata !{i32 786478, i32 0, metadata !123, metadata !"to_uint", metadata !"to_uint", metadata !"_ZNK11ap_int_baseILi1024ELb0ELb0EE7to_uintEv", metadata !124, i32 2607, metadata !291, i1 false, i1 false, i32 0, i32 0, null, i32 256, i1 false, null, null, i32 0, metadata !136, i32 2607} ; [ DW_TAG_subprogram ]
!291 = metadata !{i32 786453, i32 0, metadata !"", i32 0, i32 0, i64 0, i64 0, i64 0, i32 0, null, metadata !292, i32 0, i32 0} ; [ DW_TAG_subroutine_type ]
!292 = metadata !{metadata !186, metadata !279}
!293 = metadata !{i32 786478, i32 0, metadata !123, metadata !"to_long", metadata !"to_long", metadata !"_ZNK11ap_int_baseILi1024ELb0ELb0EE7to_longEv", metadata !124, i32 2608, metadata !294, i1 false, i1 false, i32 0, i32 0, null, i32 256, i1 false, null, null, i32 0, metadata !136, i32 2608} ; [ DW_TAG_subprogram ]
!294 = metadata !{i32 786453, i32 0, metadata !"", i32 0, i32 0, i64 0, i64 0, i64 0, i32 0, null, metadata !295, i32 0, i32 0} ; [ DW_TAG_subroutine_type ]
!295 = metadata !{metadata !190, metadata !279}
!296 = metadata !{i32 786478, i32 0, metadata !123, metadata !"to_ulong", metadata !"to_ulong", metadata !"_ZNK11ap_int_baseILi1024ELb0ELb0EE8to_ulongEv", metadata !124, i32 2609, metadata !297, i1 false, i1 false, i32 0, i32 0, null, i32 256, i1 false, null, null, i32 0, metadata !136, i32 2609} ; [ DW_TAG_subprogram ]
!297 = metadata !{i32 786453, i32 0, metadata !"", i32 0, i32 0, i64 0, i64 0, i64 0, i32 0, null, metadata !298, i32 0, i32 0} ; [ DW_TAG_subroutine_type ]
!298 = metadata !{metadata !194, metadata !279}
!299 = metadata !{i32 786478, i32 0, metadata !123, metadata !"to_int64", metadata !"to_int64", metadata !"_ZNK11ap_int_baseILi1024ELb0ELb0EE8to_int64Ev", metadata !124, i32 2610, metadata !300, i1 false, i1 false, i32 0, i32 0, null, i32 256, i1 false, null, null, i32 0, metadata !136, i32 2610} ; [ DW_TAG_subprogram ]
!300 = metadata !{i32 786453, i32 0, metadata !"", i32 0, i32 0, i64 0, i64 0, i64 0, i32 0, null, metadata !301, i32 0, i32 0} ; [ DW_TAG_subroutine_type ]
!301 = metadata !{metadata !198, metadata !279}
!302 = metadata !{i32 786478, i32 0, metadata !123, metadata !"to_uint64", metadata !"to_uint64", metadata !"_ZNK11ap_int_baseILi1024ELb0ELb0EE9to_uint64Ev", metadata !124, i32 2611, metadata !303, i1 false, i1 false, i32 0, i32 0, null, i32 256, i1 false, null, null, i32 0, metadata !136, i32 2611} ; [ DW_TAG_subprogram ]
!303 = metadata !{i32 786453, i32 0, metadata !"", i32 0, i32 0, i64 0, i64 0, i64 0, i32 0, null, metadata !304, i32 0, i32 0} ; [ DW_TAG_subroutine_type ]
!304 = metadata !{metadata !203, metadata !279}
!305 = metadata !{i32 786478, i32 0, metadata !123, metadata !"to_double", metadata !"to_double", metadata !"_ZNK11ap_int_baseILi1024ELb0ELb0EE9to_doubleEv", metadata !124, i32 2612, metadata !306, i1 false, i1 false, i32 0, i32 0, null, i32 256, i1 false, null, null, i32 0, metadata !136, i32 2612} ; [ DW_TAG_subprogram ]
!306 = metadata !{i32 786453, i32 0, metadata !"", i32 0, i32 0, i64 0, i64 0, i64 0, i32 0, null, metadata !307, i32 0, i32 0} ; [ DW_TAG_subroutine_type ]
!307 = metadata !{metadata !212, metadata !279}
!308 = metadata !{i32 786478, i32 0, metadata !123, metadata !"length", metadata !"length", metadata !"_ZNK11ap_int_baseILi1024ELb0ELb0EE6lengthEv", metadata !124, i32 2625, metadata !288, i1 false, i1 false, i32 0, i32 0, null, i32 256, i1 false, null, null, i32 0, metadata !136, i32 2625} ; [ DW_TAG_subprogram ]
!309 = metadata !{i32 786478, i32 0, metadata !123, metadata !"length", metadata !"length", metadata !"_ZNVK11ap_int_baseILi1024ELb0ELb0EE6lengthEv", metadata !124, i32 2626, metadata !310, i1 false, i1 false, i32 0, i32 0, null, i32 256, i1 false, null, null, i32 0, metadata !136, i32 2626} ; [ DW_TAG_subprogram ]
!310 = metadata !{i32 786453, i32 0, metadata !"", i32 0, i32 0, i64 0, i64 0, i64 0, i32 0, null, metadata !311, i32 0, i32 0} ; [ DW_TAG_subroutine_type ]
!311 = metadata !{metadata !140, metadata !312}
!312 = metadata !{i32 786447, i32 0, metadata !"", i32 0, i32 0, i64 64, i64 64, i64 0, i32 64, metadata !159} ; [ DW_TAG_pointer_type ]
!313 = metadata !{i32 786478, i32 0, metadata !123, metadata !"reverse", metadata !"reverse", metadata !"_ZN11ap_int_baseILi1024ELb0ELb0EE7reverseEv", metadata !124, i32 2631, metadata !314, i1 false, i1 false, i32 0, i32 0, null, i32 256, i1 false, null, null, i32 0, metadata !136, i32 2631} ; [ DW_TAG_subprogram ]
!314 = metadata !{i32 786453, i32 0, metadata !"", i32 0, i32 0, i64 0, i64 0, i64 0, i32 0, null, metadata !315, i32 0, i32 0} ; [ DW_TAG_subroutine_type ]
!315 = metadata !{metadata !236, metadata !146}
!316 = metadata !{i32 786478, i32 0, metadata !123, metadata !"iszero", metadata !"iszero", metadata !"_ZNK11ap_int_baseILi1024ELb0ELb0EE6iszeroEv", metadata !124, i32 2637, metadata !281, i1 false, i1 false, i32 0, i32 0, null, i32 256, i1 false, null, null, i32 0, metadata !136, i32 2637} ; [ DW_TAG_subprogram ]
!317 = metadata !{i32 786478, i32 0, metadata !123, metadata !"is_zero", metadata !"is_zero", metadata !"_ZNK11ap_int_baseILi1024ELb0ELb0EE7is_zeroEv", metadata !124, i32 2642, metadata !281, i1 false, i1 false, i32 0, i32 0, null, i32 256, i1 false, null, null, i32 0, metadata !136, i32 2642} ; [ DW_TAG_subprogram ]
!318 = metadata !{i32 786478, i32 0, metadata !123, metadata !"sign", metadata !"sign", metadata !"_ZNK11ap_int_baseILi1024ELb0ELb0EE4signEv", metadata !124, i32 2647, metadata !281, i1 false, i1 false, i32 0, i32 0, null, i32 256, i1 false, null, null, i32 0, metadata !136, i32 2647} ; [ DW_TAG_subprogram ]
!319 = metadata !{i32 786478, i32 0, metadata !123, metadata !"clear", metadata !"clear", metadata !"_ZN11ap_int_baseILi1024ELb0ELb0EE5clearEi", metadata !124, i32 2655, metadata !181, i1 false, i1 false, i32 0, i32 0, null, i32 256, i1 false, null, null, i32 0, metadata !136, i32 2655} ; [ DW_TAG_subprogram ]
!320 = metadata !{i32 786478, i32 0, metadata !123, metadata !"invert", metadata !"invert", metadata !"_ZN11ap_int_baseILi1024ELb0ELb0EE6invertEi", metadata !124, i32 2661, metadata !181, i1 false, i1 false, i32 0, i32 0, null, i32 256, i1 false, null, null, i32 0, metadata !136, i32 2661} ; [ DW_TAG_subprogram ]
!321 = metadata !{i32 786478, i32 0, metadata !123, metadata !"test", metadata !"test", metadata !"_ZNK11ap_int_baseILi1024ELb0ELb0EE4testEi", metadata !124, i32 2669, metadata !322, i1 false, i1 false, i32 0, i32 0, null, i32 256, i1 false, null, null, i32 0, metadata !136, i32 2669} ; [ DW_TAG_subprogram ]
!322 = metadata !{i32 786453, i32 0, metadata !"", i32 0, i32 0, i64 0, i64 0, i64 0, i32 0, null, metadata !323, i32 0, i32 0} ; [ DW_TAG_subroutine_type ]
!323 = metadata !{metadata !142, metadata !279, metadata !140}
!324 = metadata !{i32 786478, i32 0, metadata !123, metadata !"set", metadata !"set", metadata !"_ZN11ap_int_baseILi1024ELb0ELb0EE3setEi", metadata !124, i32 2675, metadata !181, i1 false, i1 false, i32 0, i32 0, null, i32 256, i1 false, null, null, i32 0, metadata !136, i32 2675} ; [ DW_TAG_subprogram ]
!325 = metadata !{i32 786478, i32 0, metadata !123, metadata !"set", metadata !"set", metadata !"_ZN11ap_int_baseILi1024ELb0ELb0EE3setEib", metadata !124, i32 2681, metadata !326, i1 false, i1 false, i32 0, i32 0, null, i32 256, i1 false, null, null, i32 0, metadata !136, i32 2681} ; [ DW_TAG_subprogram ]
!326 = metadata !{i32 786453, i32 0, metadata !"", i32 0, i32 0, i64 0, i64 0, i64 0, i32 0, null, metadata !327, i32 0, i32 0} ; [ DW_TAG_subroutine_type ]
!327 = metadata !{null, metadata !146, metadata !140, metadata !142}
!328 = metadata !{i32 786478, i32 0, metadata !123, metadata !"lrotate", metadata !"lrotate", metadata !"_ZN11ap_int_baseILi1024ELb0ELb0EE7lrotateEi", metadata !124, i32 2688, metadata !181, i1 false, i1 false, i32 0, i32 0, null, i32 256, i1 false, null, null, i32 0, metadata !136, i32 2688} ; [ DW_TAG_subprogram ]
!329 = metadata !{i32 786478, i32 0, metadata !123, metadata !"rrotate", metadata !"rrotate", metadata !"_ZN11ap_int_baseILi1024ELb0ELb0EE7rrotateEi", metadata !124, i32 2697, metadata !181, i1 false, i1 false, i32 0, i32 0, null, i32 256, i1 false, null, null, i32 0, metadata !136, i32 2697} ; [ DW_TAG_subprogram ]
!330 = metadata !{i32 786478, i32 0, metadata !123, metadata !"set_bit", metadata !"set_bit", metadata !"_ZN11ap_int_baseILi1024ELb0ELb0EE7set_bitEib", metadata !124, i32 2705, metadata !326, i1 false, i1 false, i32 0, i32 0, null, i32 256, i1 false, null, null, i32 0, metadata !136, i32 2705} ; [ DW_TAG_subprogram ]
!331 = metadata !{i32 786478, i32 0, metadata !123, metadata !"get_bit", metadata !"get_bit", metadata !"_ZNK11ap_int_baseILi1024ELb0ELb0EE7get_bitEi", metadata !124, i32 2710, metadata !322, i1 false, i1 false, i32 0, i32 0, null, i32 256, i1 false, null, null, i32 0, metadata !136, i32 2710} ; [ DW_TAG_subprogram ]
!332 = metadata !{i32 786478, i32 0, metadata !123, metadata !"b_not", metadata !"b_not", metadata !"_ZN11ap_int_baseILi1024ELb0ELb0EE5b_notEv", metadata !124, i32 2715, metadata !144, i1 false, i1 false, i32 0, i32 0, null, i32 256, i1 false, null, null, i32 0, metadata !136, i32 2715} ; [ DW_TAG_subprogram ]
!333 = metadata !{i32 786478, i32 0, metadata !123, metadata !"countLeadingZeros", metadata !"countLeadingZeros", metadata !"_ZN11ap_int_baseILi1024ELb0ELb0EE17countLeadingZerosEv", metadata !124, i32 2722, metadata !334, i1 false, i1 false, i32 0, i32 0, null, i32 256, i1 false, null, null, i32 0, metadata !136, i32 2722} ; [ DW_TAG_subprogram ]
!334 = metadata !{i32 786453, i32 0, metadata !"", i32 0, i32 0, i64 0, i64 0, i64 0, i32 0, null, metadata !335, i32 0, i32 0} ; [ DW_TAG_subroutine_type ]
!335 = metadata !{metadata !140, metadata !146}
!336 = metadata !{i32 786478, i32 0, metadata !123, metadata !"operator++", metadata !"operator++", metadata !"_ZN11ap_int_baseILi1024ELb0ELb0EEppEv", metadata !124, i32 2779, metadata !314, i1 false, i1 false, i32 0, i32 0, null, i32 256, i1 false, null, null, i32 0, metadata !136, i32 2779} ; [ DW_TAG_subprogram ]
!337 = metadata !{i32 786478, i32 0, metadata !123, metadata !"operator--", metadata !"operator--", metadata !"_ZN11ap_int_baseILi1024ELb0ELb0EEmmEv", metadata !124, i32 2783, metadata !314, i1 false, i1 false, i32 0, i32 0, null, i32 256, i1 false, null, null, i32 0, metadata !136, i32 2783} ; [ DW_TAG_subprogram ]
!338 = metadata !{i32 786478, i32 0, metadata !123, metadata !"operator++", metadata !"operator++", metadata !"_ZN11ap_int_baseILi1024ELb0ELb0EEppEi", metadata !124, i32 2791, metadata !339, i1 false, i1 false, i32 0, i32 0, null, i32 256, i1 false, null, null, i32 0, metadata !136, i32 2791} ; [ DW_TAG_subprogram ]
!339 = metadata !{i32 786453, i32 0, metadata !"", i32 0, i32 0, i64 0, i64 0, i64 0, i32 0, null, metadata !340, i32 0, i32 0} ; [ DW_TAG_subroutine_type ]
!340 = metadata !{metadata !151, metadata !146, metadata !140}
!341 = metadata !{i32 786478, i32 0, metadata !123, metadata !"operator--", metadata !"operator--", metadata !"_ZN11ap_int_baseILi1024ELb0ELb0EEmmEi", metadata !124, i32 2796, metadata !339, i1 false, i1 false, i32 0, i32 0, null, i32 256, i1 false, null, null, i32 0, metadata !136, i32 2796} ; [ DW_TAG_subprogram ]
!342 = metadata !{i32 786478, i32 0, metadata !123, metadata !"operator+", metadata !"operator+", metadata !"_ZNK11ap_int_baseILi1024ELb0ELb0EEpsEv", metadata !124, i32 2805, metadata !343, i1 false, i1 false, i32 0, i32 0, null, i32 256, i1 false, null, null, i32 0, metadata !136, i32 2805} ; [ DW_TAG_subprogram ]
!343 = metadata !{i32 786453, i32 0, metadata !"", i32 0, i32 0, i64 0, i64 0, i64 0, i32 0, null, metadata !344, i32 0, i32 0} ; [ DW_TAG_subroutine_type ]
!344 = metadata !{metadata !123, metadata !279}
!345 = metadata !{i32 786478, i32 0, metadata !123, metadata !"operator-", metadata !"operator-", metadata !"_ZNK11ap_int_baseILi1024ELb0ELb0EEngEv", metadata !124, i32 2809, metadata !346, i1 false, i1 false, i32 0, i32 0, null, i32 256, i1 false, null, null, i32 0, metadata !136, i32 2809} ; [ DW_TAG_subprogram ]
!346 = metadata !{i32 786453, i32 0, metadata !"", i32 0, i32 0, i64 0, i64 0, i64 0, i32 0, null, metadata !347, i32 0, i32 0} ; [ DW_TAG_subroutine_type ]
!347 = metadata !{metadata !348, metadata !279}
!348 = metadata !{i32 786454, metadata !349, metadata !"minus", metadata !124, i32 2368, i64 0, i64 0, i64 0, i32 0, metadata !352} ; [ DW_TAG_typedef ]
!349 = metadata !{i32 786434, metadata !123, metadata !"RType<1, false>", metadata !124, i32 2350, i64 8, i64 8, i32 0, i32 0, null, metadata !276, i32 0, null, metadata !350} ; [ DW_TAG_class_type ]
!350 = metadata !{metadata !351, metadata !154}
!351 = metadata !{i32 786480, null, metadata !"_AP_W2", metadata !140, i64 1, null, i32 0, i32 0} ; [ DW_TAG_template_value_parameter ]
!352 = metadata !{i32 786434, null, metadata !"ap_int_base<1025, true, false>", metadata !124, i32 650, i32 0, i32 0, i32 0, i32 4, null, null, i32 0} ; [ DW_TAG_class_type ]
!353 = metadata !{i32 786478, i32 0, metadata !123, metadata !"operator!", metadata !"operator!", metadata !"_ZNK11ap_int_baseILi1024ELb0ELb0EEntEv", metadata !124, i32 2816, metadata !281, i1 false, i1 false, i32 0, i32 0, null, i32 256, i1 false, null, null, i32 0, metadata !136, i32 2816} ; [ DW_TAG_subprogram ]
!354 = metadata !{i32 786478, i32 0, metadata !123, metadata !"operator~", metadata !"operator~", metadata !"_ZNK11ap_int_baseILi1024ELb0ELb0EEcoEv", metadata !124, i32 2823, metadata !355, i1 false, i1 false, i32 0, i32 0, null, i32 256, i1 false, null, null, i32 0, metadata !136, i32 2823} ; [ DW_TAG_subprogram ]
!355 = metadata !{i32 786453, i32 0, metadata !"", i32 0, i32 0, i64 0, i64 0, i64 0, i32 0, null, metadata !356, i32 0, i32 0} ; [ DW_TAG_subroutine_type ]
!356 = metadata !{metadata !352, metadata !279}
!357 = metadata !{i32 786478, i32 0, metadata !123, metadata !"range", metadata !"range", metadata !"_ZN11ap_int_baseILi1024ELb0ELb0EE5rangeEii", metadata !124, i32 2950, metadata !358, i1 false, i1 false, i32 0, i32 0, null, i32 256, i1 false, null, null, i32 0, metadata !136, i32 2950} ; [ DW_TAG_subprogram ]
!358 = metadata !{i32 786453, i32 0, metadata !"", i32 0, i32 0, i64 0, i64 0, i64 0, i32 0, null, metadata !359, i32 0, i32 0} ; [ DW_TAG_subroutine_type ]
!359 = metadata !{metadata !360, metadata !146, metadata !140, metadata !140}
!360 = metadata !{i32 786434, null, metadata !"ap_range_ref<1024, false>", metadata !124, i32 923, i32 0, i32 0, i32 0, i32 4, null, null, i32 0} ; [ DW_TAG_class_type ]
!361 = metadata !{i32 786478, i32 0, metadata !123, metadata !"operator()", metadata !"operator()", metadata !"_ZN11ap_int_baseILi1024ELb0ELb0EEclEii", metadata !124, i32 2956, metadata !358, i1 false, i1 false, i32 0, i32 0, null, i32 256, i1 false, null, null, i32 0, metadata !136, i32 2956} ; [ DW_TAG_subprogram ]
!362 = metadata !{i32 786478, i32 0, metadata !123, metadata !"range", metadata !"range", metadata !"_ZNK11ap_int_baseILi1024ELb0ELb0EE5rangeEii", metadata !124, i32 2962, metadata !363, i1 false, i1 false, i32 0, i32 0, null, i32 256, i1 false, null, null, i32 0, metadata !136, i32 2962} ; [ DW_TAG_subprogram ]
!363 = metadata !{i32 786453, i32 0, metadata !"", i32 0, i32 0, i64 0, i64 0, i64 0, i32 0, null, metadata !364, i32 0, i32 0} ; [ DW_TAG_subroutine_type ]
!364 = metadata !{metadata !360, metadata !279, metadata !140, metadata !140}
!365 = metadata !{i32 786478, i32 0, metadata !123, metadata !"operator()", metadata !"operator()", metadata !"_ZNK11ap_int_baseILi1024ELb0ELb0EEclEii", metadata !124, i32 2968, metadata !363, i1 false, i1 false, i32 0, i32 0, null, i32 256, i1 false, null, null, i32 0, metadata !136, i32 2968} ; [ DW_TAG_subprogram ]
!366 = metadata !{i32 786478, i32 0, metadata !123, metadata !"operator[]", metadata !"operator[]", metadata !"_ZN11ap_int_baseILi1024ELb0ELb0EEixEi", metadata !124, i32 2988, metadata !367, i1 false, i1 false, i32 0, i32 0, null, i32 256, i1 false, null, null, i32 0, metadata !136, i32 2988} ; [ DW_TAG_subprogram ]
!367 = metadata !{i32 786453, i32 0, metadata !"", i32 0, i32 0, i64 0, i64 0, i64 0, i32 0, null, metadata !368, i32 0, i32 0} ; [ DW_TAG_subroutine_type ]
!368 = metadata !{metadata !369, metadata !146, metadata !140}
!369 = metadata !{i32 786434, null, metadata !"ap_bit_ref<1024, false>", metadata !124, i32 1193, i32 0, i32 0, i32 0, i32 4, null, null, i32 0} ; [ DW_TAG_class_type ]
!370 = metadata !{i32 786478, i32 0, metadata !123, metadata !"operator[]", metadata !"operator[]", metadata !"_ZNK11ap_int_baseILi1024ELb0ELb0EEixEi", metadata !124, i32 3002, metadata !322, i1 false, i1 false, i32 0, i32 0, null, i32 256, i1 false, null, null, i32 0, metadata !136, i32 3002} ; [ DW_TAG_subprogram ]
!371 = metadata !{i32 786478, i32 0, metadata !123, metadata !"bit", metadata !"bit", metadata !"_ZN11ap_int_baseILi1024ELb0ELb0EE3bitEi", metadata !124, i32 3016, metadata !367, i1 false, i1 false, i32 0, i32 0, null, i32 256, i1 false, null, null, i32 0, metadata !136, i32 3016} ; [ DW_TAG_subprogram ]
!372 = metadata !{i32 786478, i32 0, metadata !123, metadata !"bit", metadata !"bit", metadata !"_ZNK11ap_int_baseILi1024ELb0ELb0EE3bitEi", metadata !124, i32 3030, metadata !322, i1 false, i1 false, i32 0, i32 0, null, i32 256, i1 false, null, null, i32 0, metadata !136, i32 3030} ; [ DW_TAG_subprogram ]
!373 = metadata !{i32 786478, i32 0, metadata !123, metadata !"and_reduce", metadata !"and_reduce", metadata !"_ZN11ap_int_baseILi1024ELb0ELb0EE10and_reduceEv", metadata !124, i32 3210, metadata !374, i1 false, i1 false, i32 0, i32 0, null, i32 256, i1 false, null, null, i32 0, metadata !136, i32 3210} ; [ DW_TAG_subprogram ]
!374 = metadata !{i32 786453, i32 0, metadata !"", i32 0, i32 0, i64 0, i64 0, i64 0, i32 0, null, metadata !375, i32 0, i32 0} ; [ DW_TAG_subroutine_type ]
!375 = metadata !{metadata !142, metadata !146}
!376 = metadata !{i32 786478, i32 0, metadata !123, metadata !"nand_reduce", metadata !"nand_reduce", metadata !"_ZN11ap_int_baseILi1024ELb0ELb0EE11nand_reduceEv", metadata !124, i32 3213, metadata !374, i1 false, i1 false, i32 0, i32 0, null, i32 256, i1 false, null, null, i32 0, metadata !136, i32 3213} ; [ DW_TAG_subprogram ]
!377 = metadata !{i32 786478, i32 0, metadata !123, metadata !"or_reduce", metadata !"or_reduce", metadata !"_ZN11ap_int_baseILi1024ELb0ELb0EE9or_reduceEv", metadata !124, i32 3216, metadata !374, i1 false, i1 false, i32 0, i32 0, null, i32 256, i1 false, null, null, i32 0, metadata !136, i32 3216} ; [ DW_TAG_subprogram ]
!378 = metadata !{i32 786478, i32 0, metadata !123, metadata !"nor_reduce", metadata !"nor_reduce", metadata !"_ZN11ap_int_baseILi1024ELb0ELb0EE10nor_reduceEv", metadata !124, i32 3219, metadata !374, i1 false, i1 false, i32 0, i32 0, null, i32 256, i1 false, null, null, i32 0, metadata !136, i32 3219} ; [ DW_TAG_subprogram ]
!379 = metadata !{i32 786478, i32 0, metadata !123, metadata !"xor_reduce", metadata !"xor_reduce", metadata !"_ZN11ap_int_baseILi1024ELb0ELb0EE10xor_reduceEv", metadata !124, i32 3222, metadata !374, i1 false, i1 false, i32 0, i32 0, null, i32 256, i1 false, null, null, i32 0, metadata !136, i32 3222} ; [ DW_TAG_subprogram ]
!380 = metadata !{i32 786478, i32 0, metadata !123, metadata !"xnor_reduce", metadata !"xnor_reduce", metadata !"_ZN11ap_int_baseILi1024ELb0ELb0EE11xnor_reduceEv", metadata !124, i32 3225, metadata !374, i1 false, i1 false, i32 0, i32 0, null, i32 256, i1 false, null, null, i32 0, metadata !136, i32 3225} ; [ DW_TAG_subprogram ]
!381 = metadata !{i32 786478, i32 0, metadata !123, metadata !"and_reduce", metadata !"and_reduce", metadata !"_ZNK11ap_int_baseILi1024ELb0ELb0EE10and_reduceEv", metadata !124, i32 3229, metadata !281, i1 false, i1 false, i32 0, i32 0, null, i32 256, i1 false, null, null, i32 0, metadata !136, i32 3229} ; [ DW_TAG_subprogram ]
!382 = metadata !{i32 786478, i32 0, metadata !123, metadata !"nand_reduce", metadata !"nand_reduce", metadata !"_ZNK11ap_int_baseILi1024ELb0ELb0EE11nand_reduceEv", metadata !124, i32 3232, metadata !281, i1 false, i1 false, i32 0, i32 0, null, i32 256, i1 false, null, null, i32 0, metadata !136, i32 3232} ; [ DW_TAG_subprogram ]
!383 = metadata !{i32 786478, i32 0, metadata !123, metadata !"or_reduce", metadata !"or_reduce", metadata !"_ZNK11ap_int_baseILi1024ELb0ELb0EE9or_reduceEv", metadata !124, i32 3235, metadata !281, i1 false, i1 false, i32 0, i32 0, null, i32 256, i1 false, null, null, i32 0, metadata !136, i32 3235} ; [ DW_TAG_subprogram ]
!384 = metadata !{i32 786478, i32 0, metadata !123, metadata !"nor_reduce", metadata !"nor_reduce", metadata !"_ZNK11ap_int_baseILi1024ELb0ELb0EE10nor_reduceEv", metadata !124, i32 3238, metadata !281, i1 false, i1 false, i32 0, i32 0, null, i32 256, i1 false, null, null, i32 0, metadata !136, i32 3238} ; [ DW_TAG_subprogram ]
!385 = metadata !{i32 786478, i32 0, metadata !123, metadata !"xor_reduce", metadata !"xor_reduce", metadata !"_ZNK11ap_int_baseILi1024ELb0ELb0EE10xor_reduceEv", metadata !124, i32 3241, metadata !281, i1 false, i1 false, i32 0, i32 0, null, i32 256, i1 false, null, null, i32 0, metadata !136, i32 3241} ; [ DW_TAG_subprogram ]
!386 = metadata !{i32 786478, i32 0, metadata !123, metadata !"xnor_reduce", metadata !"xnor_reduce", metadata !"_ZNK11ap_int_baseILi1024ELb0ELb0EE11xnor_reduceEv", metadata !124, i32 3244, metadata !281, i1 false, i1 false, i32 0, i32 0, null, i32 256, i1 false, null, null, i32 0, metadata !136, i32 3244} ; [ DW_TAG_subprogram ]
!387 = metadata !{i32 786478, i32 0, metadata !123, metadata !"to_string", metadata !"to_string", metadata !"_ZNK11ap_int_baseILi1024ELb0ELb0EE9to_stringEPci8BaseModeb", metadata !124, i32 3251, metadata !388, i1 false, i1 false, i32 0, i32 0, null, i32 256, i1 false, null, null, i32 0, metadata !136, i32 3251} ; [ DW_TAG_subprogram ]
!388 = metadata !{i32 786453, i32 0, metadata !"", i32 0, i32 0, i64 0, i64 0, i64 0, i32 0, null, metadata !389, i32 0, i32 0} ; [ DW_TAG_subroutine_type ]
!389 = metadata !{null, metadata !279, metadata !390, metadata !140, metadata !391, metadata !142}
!390 = metadata !{i32 786447, null, metadata !"", null, i32 0, i64 64, i64 64, i64 0, i32 0, metadata !218} ; [ DW_TAG_pointer_type ]
!391 = metadata !{i32 786436, null, metadata !"BaseMode", metadata !124, i32 602, i64 5, i64 8, i32 0, i32 0, null, metadata !392, i32 0, i32 0} ; [ DW_TAG_enumeration_type ]
!392 = metadata !{metadata !393, metadata !394, metadata !395, metadata !396}
!393 = metadata !{i32 786472, metadata !"SC_BIN", i64 2} ; [ DW_TAG_enumerator ]
!394 = metadata !{i32 786472, metadata !"SC_OCT", i64 8} ; [ DW_TAG_enumerator ]
!395 = metadata !{i32 786472, metadata !"SC_DEC", i64 10} ; [ DW_TAG_enumerator ]
!396 = metadata !{i32 786472, metadata !"SC_HEX", i64 16} ; [ DW_TAG_enumerator ]
!397 = metadata !{i32 786478, i32 0, metadata !123, metadata !"to_string", metadata !"to_string", metadata !"_ZNK11ap_int_baseILi1024ELb0ELb0EE9to_stringE8BaseModeb", metadata !124, i32 3278, metadata !398, i1 false, i1 false, i32 0, i32 0, null, i32 256, i1 false, null, null, i32 0, metadata !136, i32 3278} ; [ DW_TAG_subprogram ]
!398 = metadata !{i32 786453, i32 0, metadata !"", i32 0, i32 0, i64 0, i64 0, i64 0, i32 0, null, metadata !399, i32 0, i32 0} ; [ DW_TAG_subroutine_type ]
!399 = metadata !{metadata !390, metadata !279, metadata !391, metadata !142}
!400 = metadata !{i32 786478, i32 0, metadata !123, metadata !"to_string", metadata !"to_string", metadata !"_ZNK11ap_int_baseILi1024ELb0ELb0EE9to_stringEab", metadata !124, i32 3282, metadata !401, i1 false, i1 false, i32 0, i32 0, null, i32 256, i1 false, null, null, i32 0, metadata !136, i32 3282} ; [ DW_TAG_subprogram ]
!401 = metadata !{i32 786453, i32 0, metadata !"", i32 0, i32 0, i64 0, i64 0, i64 0, i32 0, null, metadata !402, i32 0, i32 0} ; [ DW_TAG_subroutine_type ]
!402 = metadata !{metadata !390, metadata !279, metadata !167, metadata !142}
!403 = metadata !{metadata !404, metadata !141, metadata !405}
!404 = metadata !{i32 786480, null, metadata !"_AP_W", metadata !140, i64 1024, null, i32 0, i32 0} ; [ DW_TAG_template_value_parameter ]
!405 = metadata !{i32 786480, null, metadata !"_AP_C", metadata !142, i64 0, null, i32 0, i32 0} ; [ DW_TAG_template_value_parameter ]
!406 = metadata !{i32 786478, i32 0, metadata !119, metadata !"ap_uint", metadata !"ap_uint", metadata !"", metadata !120, i32 183, metadata !407, i1 false, i1 false, i32 0, i32 0, null, i32 256, i1 false, null, null, i32 0, metadata !136, i32 183} ; [ DW_TAG_subprogram ]
!407 = metadata !{i32 786453, i32 0, metadata !"", i32 0, i32 0, i64 0, i64 0, i64 0, i32 0, null, metadata !408, i32 0, i32 0} ; [ DW_TAG_subroutine_type ]
!408 = metadata !{null, metadata !409}
!409 = metadata !{i32 786447, i32 0, metadata !"", i32 0, i32 0, i64 64, i64 64, i64 0, i32 64, metadata !119} ; [ DW_TAG_pointer_type ]
!410 = metadata !{i32 786478, i32 0, metadata !119, metadata !"ap_uint<1026, false>", metadata !"ap_uint<1026, false>", metadata !"", metadata !120, i32 197, metadata !411, i1 false, i1 false, i32 0, i32 0, null, i32 256, i1 false, null, metadata !446, i32 0, metadata !136, i32 197} ; [ DW_TAG_subprogram ]
!411 = metadata !{i32 786453, i32 0, metadata !"", i32 0, i32 0, i64 0, i64 0, i64 0, i32 0, null, metadata !412, i32 0, i32 0} ; [ DW_TAG_subroutine_type ]
!412 = metadata !{null, metadata !409, metadata !413}
!413 = metadata !{i32 786448, null, null, null, i32 0, i64 0, i64 0, i64 0, i32 0, metadata !414} ; [ DW_TAG_reference_type ]
!414 = metadata !{i32 786470, null, metadata !"", null, i32 0, i64 0, i64 0, i64 0, i32 0, metadata !415} ; [ DW_TAG_const_type ]
!415 = metadata !{i32 786434, null, metadata !"ap_range_ref<1026, false>", metadata !124, i32 923, i64 128, i64 64, i32 0, i32 0, null, metadata !416, i32 0, null, metadata !728} ; [ DW_TAG_class_type ]
!416 = metadata !{metadata !417, metadata !673, metadata !674, metadata !675, metadata !679, metadata !683, metadata !687, metadata !690, metadata !694, metadata !697, metadata !701, metadata !704, metadata !705, metadata !708, metadata !711, metadata !714, metadata !717, metadata !720, metadata !723, metadata !724, metadata !725}
!417 = metadata !{i32 786445, metadata !415, metadata !"d_bv", metadata !124, i32 924, i64 64, i64 64, i64 0, i32 0, metadata !418} ; [ DW_TAG_member ]
!418 = metadata !{i32 786448, null, null, null, i32 0, i64 0, i64 0, i64 0, i32 0, metadata !419} ; [ DW_TAG_reference_type ]
!419 = metadata !{i32 786434, null, metadata !"ap_int_base<1026, false, false>", metadata !124, i32 2341, i64 1088, i64 64, i32 0, i32 0, null, metadata !420, i32 0, null, metadata !671} ; [ DW_TAG_class_type ]
!420 = metadata !{metadata !421, metadata !437, metadata !441, metadata !448, metadata !454, metadata !457, metadata !460, metadata !463, metadata !466, metadata !469, metadata !472, metadata !475, metadata !478, metadata !481, metadata !484, metadata !487, metadata !490, metadata !493, metadata !496, metadata !499, metadata !503, metadata !506, metadata !509, metadata !510, metadata !513, metadata !516, metadata !519, metadata !522, metadata !525, metadata !528, metadata !531, metadata !534, metadata !537, metadata !540, metadata !543, metadata !546, metadata !551, metadata !554, metadata !555, metadata !556, metadata !557, metadata !558, metadata !561, metadata !564, metadata !567, metadata !570, metadata !573, metadata !576, metadata !579, metadata !580, metadata !584, metadata !587, metadata !588, metadata !589, metadata !590, metadata !591, metadata !592, metadata !595, metadata !596, metadata !599, metadata !600, metadata !601, metadata !602, metadata !603, metadata !604, metadata !607, metadata !608, metadata !609, metadata !610, metadata !611, metadata !614, metadata !615, metadata !618, metadata !624, metadata !625, metadata !628, metadata !631, metadata !634, metadata !635, metadata !638, metadata !639, metadata !643, metadata !644, metadata !645, metadata !646, metadata !649, metadata !650, metadata !651, metadata !652, metadata !653, metadata !654, metadata !655, metadata !656, metadata !657, metadata !658, metadata !659, metadata !660, metadata !663, metadata !666, metadata !669, metadata !670}
!421 = metadata !{i32 786460, metadata !419, null, metadata !124, i32 0, i64 0, i64 0, i64 0, i32 0, metadata !422} ; [ DW_TAG_inheritance ]
!422 = metadata !{i32 786434, null, metadata !"ssdm_int<2 + 1024 * 1, false>", metadata !128, i32 4, i64 1088, i64 64, i32 0, i32 0, null, metadata !423, i32 0, null, metadata !435} ; [ DW_TAG_class_type ]
!423 = metadata !{metadata !424, metadata !426, metadata !430}
!424 = metadata !{i32 786445, metadata !422, metadata !"V", metadata !128, i32 4, i64 1026, i64 64, i64 0, i32 0, metadata !425} ; [ DW_TAG_member ]
!425 = metadata !{i32 786468, null, metadata !"uint1026", null, i32 0, i64 1026, i64 64, i64 0, i32 0, i32 7} ; [ DW_TAG_base_type ]
!426 = metadata !{i32 786478, i32 0, metadata !422, metadata !"ssdm_int", metadata !"ssdm_int", metadata !"", metadata !128, i32 4, metadata !427, i1 false, i1 false, i32 0, i32 0, null, i32 256, i1 false, null, null, i32 0, metadata !136, i32 4} ; [ DW_TAG_subprogram ]
!427 = metadata !{i32 786453, i32 0, metadata !"", i32 0, i32 0, i64 0, i64 0, i64 0, i32 0, null, metadata !428, i32 0, i32 0} ; [ DW_TAG_subroutine_type ]
!428 = metadata !{null, metadata !429}
!429 = metadata !{i32 786447, i32 0, metadata !"", i32 0, i32 0, i64 64, i64 64, i64 0, i32 64, metadata !422} ; [ DW_TAG_pointer_type ]
!430 = metadata !{i32 786478, i32 0, metadata !422, metadata !"ssdm_int", metadata !"ssdm_int", metadata !"", metadata !128, i32 4, metadata !431, i1 false, i1 false, i32 0, i32 0, null, i32 320, i1 false, null, null, i32 0, metadata !136, i32 4} ; [ DW_TAG_subprogram ]
!431 = metadata !{i32 786453, i32 0, metadata !"", i32 0, i32 0, i64 0, i64 0, i64 0, i32 0, null, metadata !432, i32 0, i32 0} ; [ DW_TAG_subroutine_type ]
!432 = metadata !{null, metadata !429, metadata !433}
!433 = metadata !{i32 786448, null, null, null, i32 0, i64 0, i64 0, i64 0, i32 0, metadata !434} ; [ DW_TAG_reference_type ]
!434 = metadata !{i32 786470, null, metadata !"", null, i32 0, i64 0, i64 0, i64 0, i32 0, metadata !422} ; [ DW_TAG_const_type ]
!435 = metadata !{metadata !436, metadata !141}
!436 = metadata !{i32 786480, null, metadata !"_AP_N", metadata !140, i64 1026, null, i32 0, i32 0} ; [ DW_TAG_template_value_parameter ]
!437 = metadata !{i32 786478, i32 0, metadata !419, metadata !"ap_int_base", metadata !"ap_int_base", metadata !"", metadata !124, i32 2379, metadata !438, i1 false, i1 false, i32 0, i32 0, null, i32 256, i1 false, null, null, i32 0, metadata !136, i32 2379} ; [ DW_TAG_subprogram ]
!438 = metadata !{i32 786453, i32 0, metadata !"", i32 0, i32 0, i64 0, i64 0, i64 0, i32 0, null, metadata !439, i32 0, i32 0} ; [ DW_TAG_subroutine_type ]
!439 = metadata !{null, metadata !440}
!440 = metadata !{i32 786447, i32 0, metadata !"", i32 0, i32 0, i64 64, i64 64, i64 0, i32 64, metadata !419} ; [ DW_TAG_pointer_type ]
!441 = metadata !{i32 786478, i32 0, metadata !419, metadata !"ap_int_base<1026, false>", metadata !"ap_int_base<1026, false>", metadata !"", metadata !124, i32 2391, metadata !442, i1 false, i1 false, i32 0, i32 0, null, i32 256, i1 false, null, metadata !446, i32 0, metadata !136, i32 2391} ; [ DW_TAG_subprogram ]
!442 = metadata !{i32 786453, i32 0, metadata !"", i32 0, i32 0, i64 0, i64 0, i64 0, i32 0, null, metadata !443, i32 0, i32 0} ; [ DW_TAG_subroutine_type ]
!443 = metadata !{null, metadata !440, metadata !444}
!444 = metadata !{i32 786448, null, null, null, i32 0, i64 0, i64 0, i64 0, i32 0, metadata !445} ; [ DW_TAG_reference_type ]
!445 = metadata !{i32 786470, null, metadata !"", null, i32 0, i64 0, i64 0, i64 0, i32 0, metadata !419} ; [ DW_TAG_const_type ]
!446 = metadata !{metadata !447, metadata !154}
!447 = metadata !{i32 786480, null, metadata !"_AP_W2", metadata !140, i64 1026, null, i32 0, i32 0} ; [ DW_TAG_template_value_parameter ]
!448 = metadata !{i32 786478, i32 0, metadata !419, metadata !"ap_int_base<1026, false>", metadata !"ap_int_base<1026, false>", metadata !"", metadata !124, i32 2394, metadata !449, i1 false, i1 false, i32 0, i32 0, null, i32 256, i1 false, null, metadata !446, i32 0, metadata !136, i32 2394} ; [ DW_TAG_subprogram ]
!449 = metadata !{i32 786453, i32 0, metadata !"", i32 0, i32 0, i64 0, i64 0, i64 0, i32 0, null, metadata !450, i32 0, i32 0} ; [ DW_TAG_subroutine_type ]
!450 = metadata !{null, metadata !440, metadata !451}
!451 = metadata !{i32 786448, null, null, null, i32 0, i64 0, i64 0, i64 0, i32 0, metadata !452} ; [ DW_TAG_reference_type ]
!452 = metadata !{i32 786470, null, metadata !"", null, i32 0, i64 0, i64 0, i64 0, i32 0, metadata !453} ; [ DW_TAG_const_type ]
!453 = metadata !{i32 786485, null, metadata !"", null, i32 0, i64 0, i64 0, i64 0, i32 0, metadata !419} ; [ DW_TAG_volatile_type ]
!454 = metadata !{i32 786478, i32 0, metadata !419, metadata !"ap_int_base", metadata !"ap_int_base", metadata !"", metadata !124, i32 2401, metadata !455, i1 false, i1 false, i32 0, i32 0, null, i32 384, i1 false, null, null, i32 0, metadata !136, i32 2401} ; [ DW_TAG_subprogram ]
!455 = metadata !{i32 786453, i32 0, metadata !"", i32 0, i32 0, i64 0, i64 0, i64 0, i32 0, null, metadata !456, i32 0, i32 0} ; [ DW_TAG_subroutine_type ]
!456 = metadata !{null, metadata !440, metadata !142}
!457 = metadata !{i32 786478, i32 0, metadata !419, metadata !"ap_int_base", metadata !"ap_int_base", metadata !"", metadata !124, i32 2402, metadata !458, i1 false, i1 false, i32 0, i32 0, null, i32 384, i1 false, null, null, i32 0, metadata !136, i32 2402} ; [ DW_TAG_subprogram ]
!458 = metadata !{i32 786453, i32 0, metadata !"", i32 0, i32 0, i64 0, i64 0, i64 0, i32 0, null, metadata !459, i32 0, i32 0} ; [ DW_TAG_subroutine_type ]
!459 = metadata !{null, metadata !440, metadata !167}
!460 = metadata !{i32 786478, i32 0, metadata !419, metadata !"ap_int_base", metadata !"ap_int_base", metadata !"", metadata !124, i32 2403, metadata !461, i1 false, i1 false, i32 0, i32 0, null, i32 384, i1 false, null, null, i32 0, metadata !136, i32 2403} ; [ DW_TAG_subprogram ]
!461 = metadata !{i32 786453, i32 0, metadata !"", i32 0, i32 0, i64 0, i64 0, i64 0, i32 0, null, metadata !462, i32 0, i32 0} ; [ DW_TAG_subroutine_type ]
!462 = metadata !{null, metadata !440, metadata !171}
!463 = metadata !{i32 786478, i32 0, metadata !419, metadata !"ap_int_base", metadata !"ap_int_base", metadata !"", metadata !124, i32 2404, metadata !464, i1 false, i1 false, i32 0, i32 0, null, i32 384, i1 false, null, null, i32 0, metadata !136, i32 2404} ; [ DW_TAG_subprogram ]
!464 = metadata !{i32 786453, i32 0, metadata !"", i32 0, i32 0, i64 0, i64 0, i64 0, i32 0, null, metadata !465, i32 0, i32 0} ; [ DW_TAG_subroutine_type ]
!465 = metadata !{null, metadata !440, metadata !175}
!466 = metadata !{i32 786478, i32 0, metadata !419, metadata !"ap_int_base", metadata !"ap_int_base", metadata !"", metadata !124, i32 2405, metadata !467, i1 false, i1 false, i32 0, i32 0, null, i32 384, i1 false, null, null, i32 0, metadata !136, i32 2405} ; [ DW_TAG_subprogram ]
!467 = metadata !{i32 786453, i32 0, metadata !"", i32 0, i32 0, i64 0, i64 0, i64 0, i32 0, null, metadata !468, i32 0, i32 0} ; [ DW_TAG_subroutine_type ]
!468 = metadata !{null, metadata !440, metadata !179}
!469 = metadata !{i32 786478, i32 0, metadata !419, metadata !"ap_int_base", metadata !"ap_int_base", metadata !"", metadata !124, i32 2406, metadata !470, i1 false, i1 false, i32 0, i32 0, null, i32 384, i1 false, null, null, i32 0, metadata !136, i32 2406} ; [ DW_TAG_subprogram ]
!470 = metadata !{i32 786453, i32 0, metadata !"", i32 0, i32 0, i64 0, i64 0, i64 0, i32 0, null, metadata !471, i32 0, i32 0} ; [ DW_TAG_subroutine_type ]
!471 = metadata !{null, metadata !440, metadata !140}
!472 = metadata !{i32 786478, i32 0, metadata !419, metadata !"ap_int_base", metadata !"ap_int_base", metadata !"", metadata !124, i32 2407, metadata !473, i1 false, i1 false, i32 0, i32 0, null, i32 384, i1 false, null, null, i32 0, metadata !136, i32 2407} ; [ DW_TAG_subprogram ]
!473 = metadata !{i32 786453, i32 0, metadata !"", i32 0, i32 0, i64 0, i64 0, i64 0, i32 0, null, metadata !474, i32 0, i32 0} ; [ DW_TAG_subroutine_type ]
!474 = metadata !{null, metadata !440, metadata !186}
!475 = metadata !{i32 786478, i32 0, metadata !419, metadata !"ap_int_base", metadata !"ap_int_base", metadata !"", metadata !124, i32 2408, metadata !476, i1 false, i1 false, i32 0, i32 0, null, i32 384, i1 false, null, null, i32 0, metadata !136, i32 2408} ; [ DW_TAG_subprogram ]
!476 = metadata !{i32 786453, i32 0, metadata !"", i32 0, i32 0, i64 0, i64 0, i64 0, i32 0, null, metadata !477, i32 0, i32 0} ; [ DW_TAG_subroutine_type ]
!477 = metadata !{null, metadata !440, metadata !190}
!478 = metadata !{i32 786478, i32 0, metadata !419, metadata !"ap_int_base", metadata !"ap_int_base", metadata !"", metadata !124, i32 2409, metadata !479, i1 false, i1 false, i32 0, i32 0, null, i32 384, i1 false, null, null, i32 0, metadata !136, i32 2409} ; [ DW_TAG_subprogram ]
!479 = metadata !{i32 786453, i32 0, metadata !"", i32 0, i32 0, i64 0, i64 0, i64 0, i32 0, null, metadata !480, i32 0, i32 0} ; [ DW_TAG_subroutine_type ]
!480 = metadata !{null, metadata !440, metadata !194}
!481 = metadata !{i32 786478, i32 0, metadata !419, metadata !"ap_int_base", metadata !"ap_int_base", metadata !"", metadata !124, i32 2410, metadata !482, i1 false, i1 false, i32 0, i32 0, null, i32 384, i1 false, null, null, i32 0, metadata !136, i32 2410} ; [ DW_TAG_subprogram ]
!482 = metadata !{i32 786453, i32 0, metadata !"", i32 0, i32 0, i64 0, i64 0, i64 0, i32 0, null, metadata !483, i32 0, i32 0} ; [ DW_TAG_subroutine_type ]
!483 = metadata !{null, metadata !440, metadata !198}
!484 = metadata !{i32 786478, i32 0, metadata !419, metadata !"ap_int_base", metadata !"ap_int_base", metadata !"", metadata !124, i32 2411, metadata !485, i1 false, i1 false, i32 0, i32 0, null, i32 384, i1 false, null, null, i32 0, metadata !136, i32 2411} ; [ DW_TAG_subprogram ]
!485 = metadata !{i32 786453, i32 0, metadata !"", i32 0, i32 0, i64 0, i64 0, i64 0, i32 0, null, metadata !486, i32 0, i32 0} ; [ DW_TAG_subroutine_type ]
!486 = metadata !{null, metadata !440, metadata !203}
!487 = metadata !{i32 786478, i32 0, metadata !419, metadata !"ap_int_base", metadata !"ap_int_base", metadata !"", metadata !124, i32 2412, metadata !488, i1 false, i1 false, i32 0, i32 0, null, i32 384, i1 false, null, null, i32 0, metadata !136, i32 2412} ; [ DW_TAG_subprogram ]
!488 = metadata !{i32 786453, i32 0, metadata !"", i32 0, i32 0, i64 0, i64 0, i64 0, i32 0, null, metadata !489, i32 0, i32 0} ; [ DW_TAG_subroutine_type ]
!489 = metadata !{null, metadata !440, metadata !208}
!490 = metadata !{i32 786478, i32 0, metadata !419, metadata !"ap_int_base", metadata !"ap_int_base", metadata !"", metadata !124, i32 2413, metadata !491, i1 false, i1 false, i32 0, i32 0, null, i32 384, i1 false, null, null, i32 0, metadata !136, i32 2413} ; [ DW_TAG_subprogram ]
!491 = metadata !{i32 786453, i32 0, metadata !"", i32 0, i32 0, i64 0, i64 0, i64 0, i32 0, null, metadata !492, i32 0, i32 0} ; [ DW_TAG_subroutine_type ]
!492 = metadata !{null, metadata !440, metadata !212}
!493 = metadata !{i32 786478, i32 0, metadata !419, metadata !"ap_int_base", metadata !"ap_int_base", metadata !"", metadata !124, i32 2440, metadata !494, i1 false, i1 false, i32 0, i32 0, null, i32 256, i1 false, null, null, i32 0, metadata !136, i32 2440} ; [ DW_TAG_subprogram ]
!494 = metadata !{i32 786453, i32 0, metadata !"", i32 0, i32 0, i64 0, i64 0, i64 0, i32 0, null, metadata !495, i32 0, i32 0} ; [ DW_TAG_subroutine_type ]
!495 = metadata !{null, metadata !440, metadata !216}
!496 = metadata !{i32 786478, i32 0, metadata !419, metadata !"ap_int_base", metadata !"ap_int_base", metadata !"", metadata !124, i32 2447, metadata !497, i1 false, i1 false, i32 0, i32 0, null, i32 256, i1 false, null, null, i32 0, metadata !136, i32 2447} ; [ DW_TAG_subprogram ]
!497 = metadata !{i32 786453, i32 0, metadata !"", i32 0, i32 0, i64 0, i64 0, i64 0, i32 0, null, metadata !498, i32 0, i32 0} ; [ DW_TAG_subroutine_type ]
!498 = metadata !{null, metadata !440, metadata !216, metadata !167}
!499 = metadata !{i32 786478, i32 0, metadata !419, metadata !"read", metadata !"read", metadata !"_ZNV11ap_int_baseILi1026ELb0ELb0EE4readEv", metadata !124, i32 2468, metadata !500, i1 false, i1 false, i32 0, i32 0, null, i32 256, i1 false, null, null, i32 0, metadata !136, i32 2468} ; [ DW_TAG_subprogram ]
!500 = metadata !{i32 786453, i32 0, metadata !"", i32 0, i32 0, i64 0, i64 0, i64 0, i32 0, null, metadata !501, i32 0, i32 0} ; [ DW_TAG_subroutine_type ]
!501 = metadata !{metadata !419, metadata !502}
!502 = metadata !{i32 786447, i32 0, metadata !"", i32 0, i32 0, i64 64, i64 64, i64 0, i32 64, metadata !453} ; [ DW_TAG_pointer_type ]
!503 = metadata !{i32 786478, i32 0, metadata !419, metadata !"write", metadata !"write", metadata !"_ZNV11ap_int_baseILi1026ELb0ELb0EE5writeERKS0_", metadata !124, i32 2474, metadata !504, i1 false, i1 false, i32 0, i32 0, null, i32 256, i1 false, null, null, i32 0, metadata !136, i32 2474} ; [ DW_TAG_subprogram ]
!504 = metadata !{i32 786453, i32 0, metadata !"", i32 0, i32 0, i64 0, i64 0, i64 0, i32 0, null, metadata !505, i32 0, i32 0} ; [ DW_TAG_subroutine_type ]
!505 = metadata !{null, metadata !502, metadata !444}
!506 = metadata !{i32 786478, i32 0, metadata !419, metadata !"operator=", metadata !"operator=", metadata !"_ZNV11ap_int_baseILi1026ELb0ELb0EEaSERVKS0_", metadata !124, i32 2486, metadata !507, i1 false, i1 false, i32 0, i32 0, null, i32 256, i1 false, null, null, i32 0, metadata !136, i32 2486} ; [ DW_TAG_subprogram ]
!507 = metadata !{i32 786453, i32 0, metadata !"", i32 0, i32 0, i64 0, i64 0, i64 0, i32 0, null, metadata !508, i32 0, i32 0} ; [ DW_TAG_subroutine_type ]
!508 = metadata !{null, metadata !502, metadata !451}
!509 = metadata !{i32 786478, i32 0, metadata !419, metadata !"operator=", metadata !"operator=", metadata !"_ZNV11ap_int_baseILi1026ELb0ELb0EEaSERKS0_", metadata !124, i32 2495, metadata !504, i1 false, i1 false, i32 0, i32 0, null, i32 256, i1 false, null, null, i32 0, metadata !136, i32 2495} ; [ DW_TAG_subprogram ]
!510 = metadata !{i32 786478, i32 0, metadata !419, metadata !"operator=", metadata !"operator=", metadata !"_ZN11ap_int_baseILi1026ELb0ELb0EEaSERVKS0_", metadata !124, i32 2518, metadata !511, i1 false, i1 false, i32 0, i32 0, null, i32 256, i1 false, null, null, i32 0, metadata !136, i32 2518} ; [ DW_TAG_subprogram ]
!511 = metadata !{i32 786453, i32 0, metadata !"", i32 0, i32 0, i64 0, i64 0, i64 0, i32 0, null, metadata !512, i32 0, i32 0} ; [ DW_TAG_subroutine_type ]
!512 = metadata !{metadata !418, metadata !440, metadata !451}
!513 = metadata !{i32 786478, i32 0, metadata !419, metadata !"operator=", metadata !"operator=", metadata !"_ZN11ap_int_baseILi1026ELb0ELb0EEaSERKS0_", metadata !124, i32 2523, metadata !514, i1 false, i1 false, i32 0, i32 0, null, i32 256, i1 false, null, null, i32 0, metadata !136, i32 2523} ; [ DW_TAG_subprogram ]
!514 = metadata !{i32 786453, i32 0, metadata !"", i32 0, i32 0, i64 0, i64 0, i64 0, i32 0, null, metadata !515, i32 0, i32 0} ; [ DW_TAG_subroutine_type ]
!515 = metadata !{metadata !418, metadata !440, metadata !444}
!516 = metadata !{i32 786478, i32 0, metadata !419, metadata !"operator=", metadata !"operator=", metadata !"_ZN11ap_int_baseILi1026ELb0ELb0EEaSEPKc", metadata !124, i32 2527, metadata !517, i1 false, i1 false, i32 0, i32 0, null, i32 256, i1 false, null, null, i32 0, metadata !136, i32 2527} ; [ DW_TAG_subprogram ]
!517 = metadata !{i32 786453, i32 0, metadata !"", i32 0, i32 0, i64 0, i64 0, i64 0, i32 0, null, metadata !518, i32 0, i32 0} ; [ DW_TAG_subroutine_type ]
!518 = metadata !{metadata !418, metadata !440, metadata !216}
!519 = metadata !{i32 786478, i32 0, metadata !419, metadata !"set", metadata !"set", metadata !"_ZN11ap_int_baseILi1026ELb0ELb0EE3setEPKca", metadata !124, i32 2535, metadata !520, i1 false, i1 false, i32 0, i32 0, null, i32 256, i1 false, null, null, i32 0, metadata !136, i32 2535} ; [ DW_TAG_subprogram ]
!520 = metadata !{i32 786453, i32 0, metadata !"", i32 0, i32 0, i64 0, i64 0, i64 0, i32 0, null, metadata !521, i32 0, i32 0} ; [ DW_TAG_subroutine_type ]
!521 = metadata !{metadata !418, metadata !440, metadata !216, metadata !167}
!522 = metadata !{i32 786478, i32 0, metadata !419, metadata !"operator=", metadata !"operator=", metadata !"_ZN11ap_int_baseILi1026ELb0ELb0EEaSEc", metadata !124, i32 2549, metadata !523, i1 false, i1 false, i32 0, i32 0, null, i32 256, i1 false, null, null, i32 0, metadata !136, i32 2549} ; [ DW_TAG_subprogram ]
!523 = metadata !{i32 786453, i32 0, metadata !"", i32 0, i32 0, i64 0, i64 0, i64 0, i32 0, null, metadata !524, i32 0, i32 0} ; [ DW_TAG_subroutine_type ]
!524 = metadata !{metadata !418, metadata !440, metadata !218}
!525 = metadata !{i32 786478, i32 0, metadata !419, metadata !"operator=", metadata !"operator=", metadata !"_ZN11ap_int_baseILi1026ELb0ELb0EEaSEh", metadata !124, i32 2550, metadata !526, i1 false, i1 false, i32 0, i32 0, null, i32 256, i1 false, null, null, i32 0, metadata !136, i32 2550} ; [ DW_TAG_subprogram ]
!526 = metadata !{i32 786453, i32 0, metadata !"", i32 0, i32 0, i64 0, i64 0, i64 0, i32 0, null, metadata !527, i32 0, i32 0} ; [ DW_TAG_subroutine_type ]
!527 = metadata !{metadata !418, metadata !440, metadata !171}
!528 = metadata !{i32 786478, i32 0, metadata !419, metadata !"operator=", metadata !"operator=", metadata !"_ZN11ap_int_baseILi1026ELb0ELb0EEaSEs", metadata !124, i32 2551, metadata !529, i1 false, i1 false, i32 0, i32 0, null, i32 256, i1 false, null, null, i32 0, metadata !136, i32 2551} ; [ DW_TAG_subprogram ]
!529 = metadata !{i32 786453, i32 0, metadata !"", i32 0, i32 0, i64 0, i64 0, i64 0, i32 0, null, metadata !530, i32 0, i32 0} ; [ DW_TAG_subroutine_type ]
!530 = metadata !{metadata !418, metadata !440, metadata !175}
!531 = metadata !{i32 786478, i32 0, metadata !419, metadata !"operator=", metadata !"operator=", metadata !"_ZN11ap_int_baseILi1026ELb0ELb0EEaSEt", metadata !124, i32 2552, metadata !532, i1 false, i1 false, i32 0, i32 0, null, i32 256, i1 false, null, null, i32 0, metadata !136, i32 2552} ; [ DW_TAG_subprogram ]
!532 = metadata !{i32 786453, i32 0, metadata !"", i32 0, i32 0, i64 0, i64 0, i64 0, i32 0, null, metadata !533, i32 0, i32 0} ; [ DW_TAG_subroutine_type ]
!533 = metadata !{metadata !418, metadata !440, metadata !179}
!534 = metadata !{i32 786478, i32 0, metadata !419, metadata !"operator=", metadata !"operator=", metadata !"_ZN11ap_int_baseILi1026ELb0ELb0EEaSEi", metadata !124, i32 2553, metadata !535, i1 false, i1 false, i32 0, i32 0, null, i32 256, i1 false, null, null, i32 0, metadata !136, i32 2553} ; [ DW_TAG_subprogram ]
!535 = metadata !{i32 786453, i32 0, metadata !"", i32 0, i32 0, i64 0, i64 0, i64 0, i32 0, null, metadata !536, i32 0, i32 0} ; [ DW_TAG_subroutine_type ]
!536 = metadata !{metadata !418, metadata !440, metadata !140}
!537 = metadata !{i32 786478, i32 0, metadata !419, metadata !"operator=", metadata !"operator=", metadata !"_ZN11ap_int_baseILi1026ELb0ELb0EEaSEj", metadata !124, i32 2554, metadata !538, i1 false, i1 false, i32 0, i32 0, null, i32 256, i1 false, null, null, i32 0, metadata !136, i32 2554} ; [ DW_TAG_subprogram ]
!538 = metadata !{i32 786453, i32 0, metadata !"", i32 0, i32 0, i64 0, i64 0, i64 0, i32 0, null, metadata !539, i32 0, i32 0} ; [ DW_TAG_subroutine_type ]
!539 = metadata !{metadata !418, metadata !440, metadata !186}
!540 = metadata !{i32 786478, i32 0, metadata !419, metadata !"operator=", metadata !"operator=", metadata !"_ZN11ap_int_baseILi1026ELb0ELb0EEaSEx", metadata !124, i32 2555, metadata !541, i1 false, i1 false, i32 0, i32 0, null, i32 256, i1 false, null, null, i32 0, metadata !136, i32 2555} ; [ DW_TAG_subprogram ]
!541 = metadata !{i32 786453, i32 0, metadata !"", i32 0, i32 0, i64 0, i64 0, i64 0, i32 0, null, metadata !542, i32 0, i32 0} ; [ DW_TAG_subroutine_type ]
!542 = metadata !{metadata !418, metadata !440, metadata !198}
!543 = metadata !{i32 786478, i32 0, metadata !419, metadata !"operator=", metadata !"operator=", metadata !"_ZN11ap_int_baseILi1026ELb0ELb0EEaSEy", metadata !124, i32 2556, metadata !544, i1 false, i1 false, i32 0, i32 0, null, i32 256, i1 false, null, null, i32 0, metadata !136, i32 2556} ; [ DW_TAG_subprogram ]
!544 = metadata !{i32 786453, i32 0, metadata !"", i32 0, i32 0, i64 0, i64 0, i64 0, i32 0, null, metadata !545, i32 0, i32 0} ; [ DW_TAG_subroutine_type ]
!545 = metadata !{metadata !418, metadata !440, metadata !203}
!546 = metadata !{i32 786478, i32 0, metadata !419, metadata !"operator unsigned long long", metadata !"operator unsigned long long", metadata !"_ZNK11ap_int_baseILi1026ELb0ELb0EEcvyEv", metadata !124, i32 2595, metadata !547, i1 false, i1 false, i32 0, i32 0, null, i32 256, i1 false, null, null, i32 0, metadata !136, i32 2595} ; [ DW_TAG_subprogram ]
!547 = metadata !{i32 786453, i32 0, metadata !"", i32 0, i32 0, i64 0, i64 0, i64 0, i32 0, null, metadata !548, i32 0, i32 0} ; [ DW_TAG_subroutine_type ]
!548 = metadata !{metadata !549, metadata !550}
!549 = metadata !{i32 786454, metadata !419, metadata !"RetType", metadata !124, i32 2345, i64 0, i64 0, i64 0, i32 0, metadata !274} ; [ DW_TAG_typedef ]
!550 = metadata !{i32 786447, i32 0, metadata !"", i32 0, i32 0, i64 64, i64 64, i64 0, i32 64, metadata !445} ; [ DW_TAG_pointer_type ]
!551 = metadata !{i32 786478, i32 0, metadata !419, metadata !"to_bool", metadata !"to_bool", metadata !"_ZNK11ap_int_baseILi1026ELb0ELb0EE7to_boolEv", metadata !124, i32 2601, metadata !552, i1 false, i1 false, i32 0, i32 0, null, i32 256, i1 false, null, null, i32 0, metadata !136, i32 2601} ; [ DW_TAG_subprogram ]
!552 = metadata !{i32 786453, i32 0, metadata !"", i32 0, i32 0, i64 0, i64 0, i64 0, i32 0, null, metadata !553, i32 0, i32 0} ; [ DW_TAG_subroutine_type ]
!553 = metadata !{metadata !142, metadata !550}
!554 = metadata !{i32 786478, i32 0, metadata !419, metadata !"to_uchar", metadata !"to_uchar", metadata !"_ZNK11ap_int_baseILi1026ELb0ELb0EE8to_ucharEv", metadata !124, i32 2602, metadata !552, i1 false, i1 false, i32 0, i32 0, null, i32 256, i1 false, null, null, i32 0, metadata !136, i32 2602} ; [ DW_TAG_subprogram ]
!555 = metadata !{i32 786478, i32 0, metadata !419, metadata !"to_char", metadata !"to_char", metadata !"_ZNK11ap_int_baseILi1026ELb0ELb0EE7to_charEv", metadata !124, i32 2603, metadata !552, i1 false, i1 false, i32 0, i32 0, null, i32 256, i1 false, null, null, i32 0, metadata !136, i32 2603} ; [ DW_TAG_subprogram ]
!556 = metadata !{i32 786478, i32 0, metadata !419, metadata !"to_ushort", metadata !"to_ushort", metadata !"_ZNK11ap_int_baseILi1026ELb0ELb0EE9to_ushortEv", metadata !124, i32 2604, metadata !552, i1 false, i1 false, i32 0, i32 0, null, i32 256, i1 false, null, null, i32 0, metadata !136, i32 2604} ; [ DW_TAG_subprogram ]
!557 = metadata !{i32 786478, i32 0, metadata !419, metadata !"to_short", metadata !"to_short", metadata !"_ZNK11ap_int_baseILi1026ELb0ELb0EE8to_shortEv", metadata !124, i32 2605, metadata !552, i1 false, i1 false, i32 0, i32 0, null, i32 256, i1 false, null, null, i32 0, metadata !136, i32 2605} ; [ DW_TAG_subprogram ]
!558 = metadata !{i32 786478, i32 0, metadata !419, metadata !"to_int", metadata !"to_int", metadata !"_ZNK11ap_int_baseILi1026ELb0ELb0EE6to_intEv", metadata !124, i32 2606, metadata !559, i1 false, i1 false, i32 0, i32 0, null, i32 256, i1 false, null, null, i32 0, metadata !136, i32 2606} ; [ DW_TAG_subprogram ]
!559 = metadata !{i32 786453, i32 0, metadata !"", i32 0, i32 0, i64 0, i64 0, i64 0, i32 0, null, metadata !560, i32 0, i32 0} ; [ DW_TAG_subroutine_type ]
!560 = metadata !{metadata !140, metadata !550}
!561 = metadata !{i32 786478, i32 0, metadata !419, metadata !"to_uint", metadata !"to_uint", metadata !"_ZNK11ap_int_baseILi1026ELb0ELb0EE7to_uintEv", metadata !124, i32 2607, metadata !562, i1 false, i1 false, i32 0, i32 0, null, i32 256, i1 false, null, null, i32 0, metadata !136, i32 2607} ; [ DW_TAG_subprogram ]
!562 = metadata !{i32 786453, i32 0, metadata !"", i32 0, i32 0, i64 0, i64 0, i64 0, i32 0, null, metadata !563, i32 0, i32 0} ; [ DW_TAG_subroutine_type ]
!563 = metadata !{metadata !186, metadata !550}
!564 = metadata !{i32 786478, i32 0, metadata !419, metadata !"to_long", metadata !"to_long", metadata !"_ZNK11ap_int_baseILi1026ELb0ELb0EE7to_longEv", metadata !124, i32 2608, metadata !565, i1 false, i1 false, i32 0, i32 0, null, i32 256, i1 false, null, null, i32 0, metadata !136, i32 2608} ; [ DW_TAG_subprogram ]
!565 = metadata !{i32 786453, i32 0, metadata !"", i32 0, i32 0, i64 0, i64 0, i64 0, i32 0, null, metadata !566, i32 0, i32 0} ; [ DW_TAG_subroutine_type ]
!566 = metadata !{metadata !190, metadata !550}
!567 = metadata !{i32 786478, i32 0, metadata !419, metadata !"to_ulong", metadata !"to_ulong", metadata !"_ZNK11ap_int_baseILi1026ELb0ELb0EE8to_ulongEv", metadata !124, i32 2609, metadata !568, i1 false, i1 false, i32 0, i32 0, null, i32 256, i1 false, null, null, i32 0, metadata !136, i32 2609} ; [ DW_TAG_subprogram ]
!568 = metadata !{i32 786453, i32 0, metadata !"", i32 0, i32 0, i64 0, i64 0, i64 0, i32 0, null, metadata !569, i32 0, i32 0} ; [ DW_TAG_subroutine_type ]
!569 = metadata !{metadata !194, metadata !550}
!570 = metadata !{i32 786478, i32 0, metadata !419, metadata !"to_int64", metadata !"to_int64", metadata !"_ZNK11ap_int_baseILi1026ELb0ELb0EE8to_int64Ev", metadata !124, i32 2610, metadata !571, i1 false, i1 false, i32 0, i32 0, null, i32 256, i1 false, null, null, i32 0, metadata !136, i32 2610} ; [ DW_TAG_subprogram ]
!571 = metadata !{i32 786453, i32 0, metadata !"", i32 0, i32 0, i64 0, i64 0, i64 0, i32 0, null, metadata !572, i32 0, i32 0} ; [ DW_TAG_subroutine_type ]
!572 = metadata !{metadata !198, metadata !550}
!573 = metadata !{i32 786478, i32 0, metadata !419, metadata !"to_uint64", metadata !"to_uint64", metadata !"_ZNK11ap_int_baseILi1026ELb0ELb0EE9to_uint64Ev", metadata !124, i32 2611, metadata !574, i1 false, i1 false, i32 0, i32 0, null, i32 256, i1 false, null, null, i32 0, metadata !136, i32 2611} ; [ DW_TAG_subprogram ]
!574 = metadata !{i32 786453, i32 0, metadata !"", i32 0, i32 0, i64 0, i64 0, i64 0, i32 0, null, metadata !575, i32 0, i32 0} ; [ DW_TAG_subroutine_type ]
!575 = metadata !{metadata !203, metadata !550}
!576 = metadata !{i32 786478, i32 0, metadata !419, metadata !"to_double", metadata !"to_double", metadata !"_ZNK11ap_int_baseILi1026ELb0ELb0EE9to_doubleEv", metadata !124, i32 2612, metadata !577, i1 false, i1 false, i32 0, i32 0, null, i32 256, i1 false, null, null, i32 0, metadata !136, i32 2612} ; [ DW_TAG_subprogram ]
!577 = metadata !{i32 786453, i32 0, metadata !"", i32 0, i32 0, i64 0, i64 0, i64 0, i32 0, null, metadata !578, i32 0, i32 0} ; [ DW_TAG_subroutine_type ]
!578 = metadata !{metadata !212, metadata !550}
!579 = metadata !{i32 786478, i32 0, metadata !419, metadata !"length", metadata !"length", metadata !"_ZNK11ap_int_baseILi1026ELb0ELb0EE6lengthEv", metadata !124, i32 2625, metadata !559, i1 false, i1 false, i32 0, i32 0, null, i32 256, i1 false, null, null, i32 0, metadata !136, i32 2625} ; [ DW_TAG_subprogram ]
!580 = metadata !{i32 786478, i32 0, metadata !419, metadata !"length", metadata !"length", metadata !"_ZNVK11ap_int_baseILi1026ELb0ELb0EE6lengthEv", metadata !124, i32 2626, metadata !581, i1 false, i1 false, i32 0, i32 0, null, i32 256, i1 false, null, null, i32 0, metadata !136, i32 2626} ; [ DW_TAG_subprogram ]
!581 = metadata !{i32 786453, i32 0, metadata !"", i32 0, i32 0, i64 0, i64 0, i64 0, i32 0, null, metadata !582, i32 0, i32 0} ; [ DW_TAG_subroutine_type ]
!582 = metadata !{metadata !140, metadata !583}
!583 = metadata !{i32 786447, i32 0, metadata !"", i32 0, i32 0, i64 64, i64 64, i64 0, i32 64, metadata !452} ; [ DW_TAG_pointer_type ]
!584 = metadata !{i32 786478, i32 0, metadata !419, metadata !"reverse", metadata !"reverse", metadata !"_ZN11ap_int_baseILi1026ELb0ELb0EE7reverseEv", metadata !124, i32 2631, metadata !585, i1 false, i1 false, i32 0, i32 0, null, i32 256, i1 false, null, null, i32 0, metadata !136, i32 2631} ; [ DW_TAG_subprogram ]
!585 = metadata !{i32 786453, i32 0, metadata !"", i32 0, i32 0, i64 0, i64 0, i64 0, i32 0, null, metadata !586, i32 0, i32 0} ; [ DW_TAG_subroutine_type ]
!586 = metadata !{metadata !418, metadata !440}
!587 = metadata !{i32 786478, i32 0, metadata !419, metadata !"iszero", metadata !"iszero", metadata !"_ZNK11ap_int_baseILi1026ELb0ELb0EE6iszeroEv", metadata !124, i32 2637, metadata !552, i1 false, i1 false, i32 0, i32 0, null, i32 256, i1 false, null, null, i32 0, metadata !136, i32 2637} ; [ DW_TAG_subprogram ]
!588 = metadata !{i32 786478, i32 0, metadata !419, metadata !"is_zero", metadata !"is_zero", metadata !"_ZNK11ap_int_baseILi1026ELb0ELb0EE7is_zeroEv", metadata !124, i32 2642, metadata !552, i1 false, i1 false, i32 0, i32 0, null, i32 256, i1 false, null, null, i32 0, metadata !136, i32 2642} ; [ DW_TAG_subprogram ]
!589 = metadata !{i32 786478, i32 0, metadata !419, metadata !"sign", metadata !"sign", metadata !"_ZNK11ap_int_baseILi1026ELb0ELb0EE4signEv", metadata !124, i32 2647, metadata !552, i1 false, i1 false, i32 0, i32 0, null, i32 256, i1 false, null, null, i32 0, metadata !136, i32 2647} ; [ DW_TAG_subprogram ]
!590 = metadata !{i32 786478, i32 0, metadata !419, metadata !"clear", metadata !"clear", metadata !"_ZN11ap_int_baseILi1026ELb0ELb0EE5clearEi", metadata !124, i32 2655, metadata !470, i1 false, i1 false, i32 0, i32 0, null, i32 256, i1 false, null, null, i32 0, metadata !136, i32 2655} ; [ DW_TAG_subprogram ]
!591 = metadata !{i32 786478, i32 0, metadata !419, metadata !"invert", metadata !"invert", metadata !"_ZN11ap_int_baseILi1026ELb0ELb0EE6invertEi", metadata !124, i32 2661, metadata !470, i1 false, i1 false, i32 0, i32 0, null, i32 256, i1 false, null, null, i32 0, metadata !136, i32 2661} ; [ DW_TAG_subprogram ]
!592 = metadata !{i32 786478, i32 0, metadata !419, metadata !"test", metadata !"test", metadata !"_ZNK11ap_int_baseILi1026ELb0ELb0EE4testEi", metadata !124, i32 2669, metadata !593, i1 false, i1 false, i32 0, i32 0, null, i32 256, i1 false, null, null, i32 0, metadata !136, i32 2669} ; [ DW_TAG_subprogram ]
!593 = metadata !{i32 786453, i32 0, metadata !"", i32 0, i32 0, i64 0, i64 0, i64 0, i32 0, null, metadata !594, i32 0, i32 0} ; [ DW_TAG_subroutine_type ]
!594 = metadata !{metadata !142, metadata !550, metadata !140}
!595 = metadata !{i32 786478, i32 0, metadata !419, metadata !"set", metadata !"set", metadata !"_ZN11ap_int_baseILi1026ELb0ELb0EE3setEi", metadata !124, i32 2675, metadata !470, i1 false, i1 false, i32 0, i32 0, null, i32 256, i1 false, null, null, i32 0, metadata !136, i32 2675} ; [ DW_TAG_subprogram ]
!596 = metadata !{i32 786478, i32 0, metadata !419, metadata !"set", metadata !"set", metadata !"_ZN11ap_int_baseILi1026ELb0ELb0EE3setEib", metadata !124, i32 2681, metadata !597, i1 false, i1 false, i32 0, i32 0, null, i32 256, i1 false, null, null, i32 0, metadata !136, i32 2681} ; [ DW_TAG_subprogram ]
!597 = metadata !{i32 786453, i32 0, metadata !"", i32 0, i32 0, i64 0, i64 0, i64 0, i32 0, null, metadata !598, i32 0, i32 0} ; [ DW_TAG_subroutine_type ]
!598 = metadata !{null, metadata !440, metadata !140, metadata !142}
!599 = metadata !{i32 786478, i32 0, metadata !419, metadata !"lrotate", metadata !"lrotate", metadata !"_ZN11ap_int_baseILi1026ELb0ELb0EE7lrotateEi", metadata !124, i32 2688, metadata !470, i1 false, i1 false, i32 0, i32 0, null, i32 256, i1 false, null, null, i32 0, metadata !136, i32 2688} ; [ DW_TAG_subprogram ]
!600 = metadata !{i32 786478, i32 0, metadata !419, metadata !"rrotate", metadata !"rrotate", metadata !"_ZN11ap_int_baseILi1026ELb0ELb0EE7rrotateEi", metadata !124, i32 2697, metadata !470, i1 false, i1 false, i32 0, i32 0, null, i32 256, i1 false, null, null, i32 0, metadata !136, i32 2697} ; [ DW_TAG_subprogram ]
!601 = metadata !{i32 786478, i32 0, metadata !419, metadata !"set_bit", metadata !"set_bit", metadata !"_ZN11ap_int_baseILi1026ELb0ELb0EE7set_bitEib", metadata !124, i32 2705, metadata !597, i1 false, i1 false, i32 0, i32 0, null, i32 256, i1 false, null, null, i32 0, metadata !136, i32 2705} ; [ DW_TAG_subprogram ]
!602 = metadata !{i32 786478, i32 0, metadata !419, metadata !"get_bit", metadata !"get_bit", metadata !"_ZNK11ap_int_baseILi1026ELb0ELb0EE7get_bitEi", metadata !124, i32 2710, metadata !593, i1 false, i1 false, i32 0, i32 0, null, i32 256, i1 false, null, null, i32 0, metadata !136, i32 2710} ; [ DW_TAG_subprogram ]
!603 = metadata !{i32 786478, i32 0, metadata !419, metadata !"b_not", metadata !"b_not", metadata !"_ZN11ap_int_baseILi1026ELb0ELb0EE5b_notEv", metadata !124, i32 2715, metadata !438, i1 false, i1 false, i32 0, i32 0, null, i32 256, i1 false, null, null, i32 0, metadata !136, i32 2715} ; [ DW_TAG_subprogram ]
!604 = metadata !{i32 786478, i32 0, metadata !419, metadata !"countLeadingZeros", metadata !"countLeadingZeros", metadata !"_ZN11ap_int_baseILi1026ELb0ELb0EE17countLeadingZerosEv", metadata !124, i32 2722, metadata !605, i1 false, i1 false, i32 0, i32 0, null, i32 256, i1 false, null, null, i32 0, metadata !136, i32 2722} ; [ DW_TAG_subprogram ]
!605 = metadata !{i32 786453, i32 0, metadata !"", i32 0, i32 0, i64 0, i64 0, i64 0, i32 0, null, metadata !606, i32 0, i32 0} ; [ DW_TAG_subroutine_type ]
!606 = metadata !{metadata !140, metadata !440}
!607 = metadata !{i32 786478, i32 0, metadata !419, metadata !"operator+=<1026, false>", metadata !"operator+=<1026, false>", metadata !"_ZN11ap_int_baseILi1026ELb0ELb0EEpLILi1026ELb0EEERS0_RKS_IXT_EXT0_EXleT_Li64EEE", metadata !124, i32 2763, metadata !514, i1 false, i1 false, i32 0, i32 0, null, i32 256, i1 false, null, metadata !446, i32 0, metadata !136, i32 2763} ; [ DW_TAG_subprogram ]
!608 = metadata !{i32 786478, i32 0, metadata !419, metadata !"operator-=<1026, false>", metadata !"operator-=<1026, false>", metadata !"_ZN11ap_int_baseILi1026ELb0ELb0EEmIILi1026ELb0EEERS0_RKS_IXT_EXT0_EXleT_Li64EEE", metadata !124, i32 2764, metadata !514, i1 false, i1 false, i32 0, i32 0, null, i32 256, i1 false, null, metadata !446, i32 0, metadata !136, i32 2764} ; [ DW_TAG_subprogram ]
!609 = metadata !{i32 786478, i32 0, metadata !419, metadata !"operator++", metadata !"operator++", metadata !"_ZN11ap_int_baseILi1026ELb0ELb0EEppEv", metadata !124, i32 2779, metadata !585, i1 false, i1 false, i32 0, i32 0, null, i32 256, i1 false, null, null, i32 0, metadata !136, i32 2779} ; [ DW_TAG_subprogram ]
!610 = metadata !{i32 786478, i32 0, metadata !419, metadata !"operator--", metadata !"operator--", metadata !"_ZN11ap_int_baseILi1026ELb0ELb0EEmmEv", metadata !124, i32 2783, metadata !585, i1 false, i1 false, i32 0, i32 0, null, i32 256, i1 false, null, null, i32 0, metadata !136, i32 2783} ; [ DW_TAG_subprogram ]
!611 = metadata !{i32 786478, i32 0, metadata !419, metadata !"operator++", metadata !"operator++", metadata !"_ZN11ap_int_baseILi1026ELb0ELb0EEppEi", metadata !124, i32 2791, metadata !612, i1 false, i1 false, i32 0, i32 0, null, i32 256, i1 false, null, null, i32 0, metadata !136, i32 2791} ; [ DW_TAG_subprogram ]
!612 = metadata !{i32 786453, i32 0, metadata !"", i32 0, i32 0, i64 0, i64 0, i64 0, i32 0, null, metadata !613, i32 0, i32 0} ; [ DW_TAG_subroutine_type ]
!613 = metadata !{metadata !445, metadata !440, metadata !140}
!614 = metadata !{i32 786478, i32 0, metadata !419, metadata !"operator--", metadata !"operator--", metadata !"_ZN11ap_int_baseILi1026ELb0ELb0EEmmEi", metadata !124, i32 2796, metadata !612, i1 false, i1 false, i32 0, i32 0, null, i32 256, i1 false, null, null, i32 0, metadata !136, i32 2796} ; [ DW_TAG_subprogram ]
!615 = metadata !{i32 786478, i32 0, metadata !419, metadata !"operator+", metadata !"operator+", metadata !"_ZNK11ap_int_baseILi1026ELb0ELb0EEpsEv", metadata !124, i32 2805, metadata !616, i1 false, i1 false, i32 0, i32 0, null, i32 256, i1 false, null, null, i32 0, metadata !136, i32 2805} ; [ DW_TAG_subprogram ]
!616 = metadata !{i32 786453, i32 0, metadata !"", i32 0, i32 0, i64 0, i64 0, i64 0, i32 0, null, metadata !617, i32 0, i32 0} ; [ DW_TAG_subroutine_type ]
!617 = metadata !{metadata !419, metadata !550}
!618 = metadata !{i32 786478, i32 0, metadata !419, metadata !"operator-", metadata !"operator-", metadata !"_ZNK11ap_int_baseILi1026ELb0ELb0EEngEv", metadata !124, i32 2809, metadata !619, i1 false, i1 false, i32 0, i32 0, null, i32 256, i1 false, null, null, i32 0, metadata !136, i32 2809} ; [ DW_TAG_subprogram ]
!619 = metadata !{i32 786453, i32 0, metadata !"", i32 0, i32 0, i64 0, i64 0, i64 0, i32 0, null, metadata !620, i32 0, i32 0} ; [ DW_TAG_subroutine_type ]
!620 = metadata !{metadata !621, metadata !550}
!621 = metadata !{i32 786454, metadata !622, metadata !"minus", metadata !124, i32 2368, i64 0, i64 0, i64 0, i32 0, metadata !623} ; [ DW_TAG_typedef ]
!622 = metadata !{i32 786434, metadata !419, metadata !"RType<1, false>", metadata !124, i32 2350, i64 8, i64 8, i32 0, i32 0, null, metadata !276, i32 0, null, metadata !350} ; [ DW_TAG_class_type ]
!623 = metadata !{i32 786434, null, metadata !"ap_int_base<1027, true, false>", metadata !124, i32 650, i32 0, i32 0, i32 0, i32 4, null, null, i32 0} ; [ DW_TAG_class_type ]
!624 = metadata !{i32 786478, i32 0, metadata !419, metadata !"operator!", metadata !"operator!", metadata !"_ZNK11ap_int_baseILi1026ELb0ELb0EEntEv", metadata !124, i32 2816, metadata !552, i1 false, i1 false, i32 0, i32 0, null, i32 256, i1 false, null, null, i32 0, metadata !136, i32 2816} ; [ DW_TAG_subprogram ]
!625 = metadata !{i32 786478, i32 0, metadata !419, metadata !"operator~", metadata !"operator~", metadata !"_ZNK11ap_int_baseILi1026ELb0ELb0EEcoEv", metadata !124, i32 2823, metadata !626, i1 false, i1 false, i32 0, i32 0, null, i32 256, i1 false, null, null, i32 0, metadata !136, i32 2823} ; [ DW_TAG_subprogram ]
!626 = metadata !{i32 786453, i32 0, metadata !"", i32 0, i32 0, i64 0, i64 0, i64 0, i32 0, null, metadata !627, i32 0, i32 0} ; [ DW_TAG_subroutine_type ]
!627 = metadata !{metadata !623, metadata !550}
!628 = metadata !{i32 786478, i32 0, metadata !419, metadata !"operator>=<1026, false>", metadata !"operator>=<1026, false>", metadata !"_ZNK11ap_int_baseILi1026ELb0ELb0EEgeILi1026ELb0EEEbRKS_IXT_EXT0_EXleT_Li64EEE", metadata !124, i32 2933, metadata !629, i1 false, i1 false, i32 0, i32 0, null, i32 256, i1 false, null, metadata !446, i32 0, metadata !136, i32 2933} ; [ DW_TAG_subprogram ]
!629 = metadata !{i32 786453, i32 0, metadata !"", i32 0, i32 0, i64 0, i64 0, i64 0, i32 0, null, metadata !630, i32 0, i32 0} ; [ DW_TAG_subroutine_type ]
!630 = metadata !{metadata !142, metadata !550, metadata !444}
!631 = metadata !{i32 786478, i32 0, metadata !419, metadata !"range", metadata !"range", metadata !"_ZN11ap_int_baseILi1026ELb0ELb0EE5rangeEii", metadata !124, i32 2950, metadata !632, i1 false, i1 false, i32 0, i32 0, null, i32 256, i1 false, null, null, i32 0, metadata !136, i32 2950} ; [ DW_TAG_subprogram ]
!632 = metadata !{i32 786453, i32 0, metadata !"", i32 0, i32 0, i64 0, i64 0, i64 0, i32 0, null, metadata !633, i32 0, i32 0} ; [ DW_TAG_subroutine_type ]
!633 = metadata !{metadata !415, metadata !440, metadata !140, metadata !140}
!634 = metadata !{i32 786478, i32 0, metadata !419, metadata !"operator()", metadata !"operator()", metadata !"_ZN11ap_int_baseILi1026ELb0ELb0EEclEii", metadata !124, i32 2956, metadata !632, i1 false, i1 false, i32 0, i32 0, null, i32 256, i1 false, null, null, i32 0, metadata !136, i32 2956} ; [ DW_TAG_subprogram ]
!635 = metadata !{i32 786478, i32 0, metadata !419, metadata !"range", metadata !"range", metadata !"_ZNK11ap_int_baseILi1026ELb0ELb0EE5rangeEii", metadata !124, i32 2962, metadata !636, i1 false, i1 false, i32 0, i32 0, null, i32 256, i1 false, null, null, i32 0, metadata !136, i32 2962} ; [ DW_TAG_subprogram ]
!636 = metadata !{i32 786453, i32 0, metadata !"", i32 0, i32 0, i64 0, i64 0, i64 0, i32 0, null, metadata !637, i32 0, i32 0} ; [ DW_TAG_subroutine_type ]
!637 = metadata !{metadata !415, metadata !550, metadata !140, metadata !140}
!638 = metadata !{i32 786478, i32 0, metadata !419, metadata !"operator()", metadata !"operator()", metadata !"_ZNK11ap_int_baseILi1026ELb0ELb0EEclEii", metadata !124, i32 2968, metadata !636, i1 false, i1 false, i32 0, i32 0, null, i32 256, i1 false, null, null, i32 0, metadata !136, i32 2968} ; [ DW_TAG_subprogram ]
!639 = metadata !{i32 786478, i32 0, metadata !419, metadata !"operator[]", metadata !"operator[]", metadata !"_ZN11ap_int_baseILi1026ELb0ELb0EEixEi", metadata !124, i32 2988, metadata !640, i1 false, i1 false, i32 0, i32 0, null, i32 256, i1 false, null, null, i32 0, metadata !136, i32 2988} ; [ DW_TAG_subprogram ]
!640 = metadata !{i32 786453, i32 0, metadata !"", i32 0, i32 0, i64 0, i64 0, i64 0, i32 0, null, metadata !641, i32 0, i32 0} ; [ DW_TAG_subroutine_type ]
!641 = metadata !{metadata !642, metadata !440, metadata !140}
!642 = metadata !{i32 786434, null, metadata !"ap_bit_ref<1026, false>", metadata !124, i32 1193, i32 0, i32 0, i32 0, i32 4, null, null, i32 0} ; [ DW_TAG_class_type ]
!643 = metadata !{i32 786478, i32 0, metadata !419, metadata !"operator[]", metadata !"operator[]", metadata !"_ZNK11ap_int_baseILi1026ELb0ELb0EEixEi", metadata !124, i32 3002, metadata !593, i1 false, i1 false, i32 0, i32 0, null, i32 256, i1 false, null, null, i32 0, metadata !136, i32 3002} ; [ DW_TAG_subprogram ]
!644 = metadata !{i32 786478, i32 0, metadata !419, metadata !"bit", metadata !"bit", metadata !"_ZN11ap_int_baseILi1026ELb0ELb0EE3bitEi", metadata !124, i32 3016, metadata !640, i1 false, i1 false, i32 0, i32 0, null, i32 256, i1 false, null, null, i32 0, metadata !136, i32 3016} ; [ DW_TAG_subprogram ]
!645 = metadata !{i32 786478, i32 0, metadata !419, metadata !"bit", metadata !"bit", metadata !"_ZNK11ap_int_baseILi1026ELb0ELb0EE3bitEi", metadata !124, i32 3030, metadata !593, i1 false, i1 false, i32 0, i32 0, null, i32 256, i1 false, null, null, i32 0, metadata !136, i32 3030} ; [ DW_TAG_subprogram ]
!646 = metadata !{i32 786478, i32 0, metadata !419, metadata !"and_reduce", metadata !"and_reduce", metadata !"_ZN11ap_int_baseILi1026ELb0ELb0EE10and_reduceEv", metadata !124, i32 3210, metadata !647, i1 false, i1 false, i32 0, i32 0, null, i32 256, i1 false, null, null, i32 0, metadata !136, i32 3210} ; [ DW_TAG_subprogram ]
!647 = metadata !{i32 786453, i32 0, metadata !"", i32 0, i32 0, i64 0, i64 0, i64 0, i32 0, null, metadata !648, i32 0, i32 0} ; [ DW_TAG_subroutine_type ]
!648 = metadata !{metadata !142, metadata !440}
!649 = metadata !{i32 786478, i32 0, metadata !419, metadata !"nand_reduce", metadata !"nand_reduce", metadata !"_ZN11ap_int_baseILi1026ELb0ELb0EE11nand_reduceEv", metadata !124, i32 3213, metadata !647, i1 false, i1 false, i32 0, i32 0, null, i32 256, i1 false, null, null, i32 0, metadata !136, i32 3213} ; [ DW_TAG_subprogram ]
!650 = metadata !{i32 786478, i32 0, metadata !419, metadata !"or_reduce", metadata !"or_reduce", metadata !"_ZN11ap_int_baseILi1026ELb0ELb0EE9or_reduceEv", metadata !124, i32 3216, metadata !647, i1 false, i1 false, i32 0, i32 0, null, i32 256, i1 false, null, null, i32 0, metadata !136, i32 3216} ; [ DW_TAG_subprogram ]
!651 = metadata !{i32 786478, i32 0, metadata !419, metadata !"nor_reduce", metadata !"nor_reduce", metadata !"_ZN11ap_int_baseILi1026ELb0ELb0EE10nor_reduceEv", metadata !124, i32 3219, metadata !647, i1 false, i1 false, i32 0, i32 0, null, i32 256, i1 false, null, null, i32 0, metadata !136, i32 3219} ; [ DW_TAG_subprogram ]
!652 = metadata !{i32 786478, i32 0, metadata !419, metadata !"xor_reduce", metadata !"xor_reduce", metadata !"_ZN11ap_int_baseILi1026ELb0ELb0EE10xor_reduceEv", metadata !124, i32 3222, metadata !647, i1 false, i1 false, i32 0, i32 0, null, i32 256, i1 false, null, null, i32 0, metadata !136, i32 3222} ; [ DW_TAG_subprogram ]
!653 = metadata !{i32 786478, i32 0, metadata !419, metadata !"xnor_reduce", metadata !"xnor_reduce", metadata !"_ZN11ap_int_baseILi1026ELb0ELb0EE11xnor_reduceEv", metadata !124, i32 3225, metadata !647, i1 false, i1 false, i32 0, i32 0, null, i32 256, i1 false, null, null, i32 0, metadata !136, i32 3225} ; [ DW_TAG_subprogram ]
!654 = metadata !{i32 786478, i32 0, metadata !419, metadata !"and_reduce", metadata !"and_reduce", metadata !"_ZNK11ap_int_baseILi1026ELb0ELb0EE10and_reduceEv", metadata !124, i32 3229, metadata !552, i1 false, i1 false, i32 0, i32 0, null, i32 256, i1 false, null, null, i32 0, metadata !136, i32 3229} ; [ DW_TAG_subprogram ]
!655 = metadata !{i32 786478, i32 0, metadata !419, metadata !"nand_reduce", metadata !"nand_reduce", metadata !"_ZNK11ap_int_baseILi1026ELb0ELb0EE11nand_reduceEv", metadata !124, i32 3232, metadata !552, i1 false, i1 false, i32 0, i32 0, null, i32 256, i1 false, null, null, i32 0, metadata !136, i32 3232} ; [ DW_TAG_subprogram ]
!656 = metadata !{i32 786478, i32 0, metadata !419, metadata !"or_reduce", metadata !"or_reduce", metadata !"_ZNK11ap_int_baseILi1026ELb0ELb0EE9or_reduceEv", metadata !124, i32 3235, metadata !552, i1 false, i1 false, i32 0, i32 0, null, i32 256, i1 false, null, null, i32 0, metadata !136, i32 3235} ; [ DW_TAG_subprogram ]
!657 = metadata !{i32 786478, i32 0, metadata !419, metadata !"nor_reduce", metadata !"nor_reduce", metadata !"_ZNK11ap_int_baseILi1026ELb0ELb0EE10nor_reduceEv", metadata !124, i32 3238, metadata !552, i1 false, i1 false, i32 0, i32 0, null, i32 256, i1 false, null, null, i32 0, metadata !136, i32 3238} ; [ DW_TAG_subprogram ]
!658 = metadata !{i32 786478, i32 0, metadata !419, metadata !"xor_reduce", metadata !"xor_reduce", metadata !"_ZNK11ap_int_baseILi1026ELb0ELb0EE10xor_reduceEv", metadata !124, i32 3241, metadata !552, i1 false, i1 false, i32 0, i32 0, null, i32 256, i1 false, null, null, i32 0, metadata !136, i32 3241} ; [ DW_TAG_subprogram ]
!659 = metadata !{i32 786478, i32 0, metadata !419, metadata !"xnor_reduce", metadata !"xnor_reduce", metadata !"_ZNK11ap_int_baseILi1026ELb0ELb0EE11xnor_reduceEv", metadata !124, i32 3244, metadata !552, i1 false, i1 false, i32 0, i32 0, null, i32 256, i1 false, null, null, i32 0, metadata !136, i32 3244} ; [ DW_TAG_subprogram ]
!660 = metadata !{i32 786478, i32 0, metadata !419, metadata !"to_string", metadata !"to_string", metadata !"_ZNK11ap_int_baseILi1026ELb0ELb0EE9to_stringEPci8BaseModeb", metadata !124, i32 3251, metadata !661, i1 false, i1 false, i32 0, i32 0, null, i32 256, i1 false, null, null, i32 0, metadata !136, i32 3251} ; [ DW_TAG_subprogram ]
!661 = metadata !{i32 786453, i32 0, metadata !"", i32 0, i32 0, i64 0, i64 0, i64 0, i32 0, null, metadata !662, i32 0, i32 0} ; [ DW_TAG_subroutine_type ]
!662 = metadata !{null, metadata !550, metadata !390, metadata !140, metadata !391, metadata !142}
!663 = metadata !{i32 786478, i32 0, metadata !419, metadata !"to_string", metadata !"to_string", metadata !"_ZNK11ap_int_baseILi1026ELb0ELb0EE9to_stringE8BaseModeb", metadata !124, i32 3278, metadata !664, i1 false, i1 false, i32 0, i32 0, null, i32 256, i1 false, null, null, i32 0, metadata !136, i32 3278} ; [ DW_TAG_subprogram ]
!664 = metadata !{i32 786453, i32 0, metadata !"", i32 0, i32 0, i64 0, i64 0, i64 0, i32 0, null, metadata !665, i32 0, i32 0} ; [ DW_TAG_subroutine_type ]
!665 = metadata !{metadata !390, metadata !550, metadata !391, metadata !142}
!666 = metadata !{i32 786478, i32 0, metadata !419, metadata !"to_string", metadata !"to_string", metadata !"_ZNK11ap_int_baseILi1026ELb0ELb0EE9to_stringEab", metadata !124, i32 3282, metadata !667, i1 false, i1 false, i32 0, i32 0, null, i32 256, i1 false, null, null, i32 0, metadata !136, i32 3282} ; [ DW_TAG_subprogram ]
!667 = metadata !{i32 786453, i32 0, metadata !"", i32 0, i32 0, i64 0, i64 0, i64 0, i32 0, null, metadata !668, i32 0, i32 0} ; [ DW_TAG_subroutine_type ]
!668 = metadata !{metadata !390, metadata !550, metadata !167, metadata !142}
!669 = metadata !{i32 786478, i32 0, metadata !419, metadata !"ap_int_base", metadata !"ap_int_base", metadata !"", metadata !124, i32 2341, metadata !442, i1 false, i1 false, i32 0, i32 0, null, i32 320, i1 false, null, null, i32 0, metadata !136, i32 2341} ; [ DW_TAG_subprogram ]
!670 = metadata !{i32 786478, i32 0, metadata !419, metadata !"~ap_int_base", metadata !"~ap_int_base", metadata !"", metadata !124, i32 2341, metadata !438, i1 false, i1 false, i32 0, i32 0, null, i32 320, i1 false, null, null, i32 0, metadata !136, i32 2341} ; [ DW_TAG_subprogram ]
!671 = metadata !{metadata !672, metadata !141, metadata !405}
!672 = metadata !{i32 786480, null, metadata !"_AP_W", metadata !140, i64 1026, null, i32 0, i32 0} ; [ DW_TAG_template_value_parameter ]
!673 = metadata !{i32 786445, metadata !415, metadata !"l_index", metadata !124, i32 925, i64 32, i64 32, i64 64, i32 0, metadata !140} ; [ DW_TAG_member ]
!674 = metadata !{i32 786445, metadata !415, metadata !"h_index", metadata !124, i32 926, i64 32, i64 32, i64 96, i32 0, metadata !140} ; [ DW_TAG_member ]
!675 = metadata !{i32 786478, i32 0, metadata !415, metadata !"ap_range_ref", metadata !"ap_range_ref", metadata !"", metadata !124, i32 929, metadata !676, i1 false, i1 false, i32 0, i32 0, null, i32 256, i1 false, null, null, i32 0, metadata !136, i32 929} ; [ DW_TAG_subprogram ]
!676 = metadata !{i32 786453, i32 0, metadata !"", i32 0, i32 0, i64 0, i64 0, i64 0, i32 0, null, metadata !677, i32 0, i32 0} ; [ DW_TAG_subroutine_type ]
!677 = metadata !{null, metadata !678, metadata !413}
!678 = metadata !{i32 786447, i32 0, metadata !"", i32 0, i32 0, i64 64, i64 64, i64 0, i32 64, metadata !415} ; [ DW_TAG_pointer_type ]
!679 = metadata !{i32 786478, i32 0, metadata !415, metadata !"ap_range_ref", metadata !"ap_range_ref", metadata !"", metadata !124, i32 932, metadata !680, i1 false, i1 false, i32 0, i32 0, null, i32 256, i1 false, null, null, i32 0, metadata !136, i32 932} ; [ DW_TAG_subprogram ]
!680 = metadata !{i32 786453, i32 0, metadata !"", i32 0, i32 0, i64 0, i64 0, i64 0, i32 0, null, metadata !681, i32 0, i32 0} ; [ DW_TAG_subroutine_type ]
!681 = metadata !{null, metadata !678, metadata !682, metadata !140, metadata !140}
!682 = metadata !{i32 786447, null, metadata !"", null, i32 0, i64 64, i64 64, i64 0, i32 0, metadata !419} ; [ DW_TAG_pointer_type ]
!683 = metadata !{i32 786478, i32 0, metadata !415, metadata !"operator ap_int_base", metadata !"operator ap_int_base", metadata !"_ZNK12ap_range_refILi1026ELb0EEcv11ap_int_baseILi1026ELb0ELb0EEEv", metadata !124, i32 937, metadata !684, i1 false, i1 false, i32 0, i32 0, null, i32 256, i1 false, null, null, i32 0, metadata !136, i32 937} ; [ DW_TAG_subprogram ]
!684 = metadata !{i32 786453, i32 0, metadata !"", i32 0, i32 0, i64 0, i64 0, i64 0, i32 0, null, metadata !685, i32 0, i32 0} ; [ DW_TAG_subroutine_type ]
!685 = metadata !{metadata !419, metadata !686}
!686 = metadata !{i32 786447, i32 0, metadata !"", i32 0, i32 0, i64 64, i64 64, i64 0, i32 64, metadata !414} ; [ DW_TAG_pointer_type ]
!687 = metadata !{i32 786478, i32 0, metadata !415, metadata !"operator unsigned long long", metadata !"operator unsigned long long", metadata !"_ZNK12ap_range_refILi1026ELb0EEcvyEv", metadata !124, i32 943, metadata !688, i1 false, i1 false, i32 0, i32 0, null, i32 256, i1 false, null, null, i32 0, metadata !136, i32 943} ; [ DW_TAG_subprogram ]
!688 = metadata !{i32 786453, i32 0, metadata !"", i32 0, i32 0, i64 0, i64 0, i64 0, i32 0, null, metadata !689, i32 0, i32 0} ; [ DW_TAG_subroutine_type ]
!689 = metadata !{metadata !204, metadata !686}
!690 = metadata !{i32 786478, i32 0, metadata !415, metadata !"operator=", metadata !"operator=", metadata !"_ZN12ap_range_refILi1026ELb0EEaSEy", metadata !124, i32 947, metadata !691, i1 false, i1 false, i32 0, i32 0, null, i32 256, i1 false, null, null, i32 0, metadata !136, i32 947} ; [ DW_TAG_subprogram ]
!691 = metadata !{i32 786453, i32 0, metadata !"", i32 0, i32 0, i64 0, i64 0, i64 0, i32 0, null, metadata !692, i32 0, i32 0} ; [ DW_TAG_subroutine_type ]
!692 = metadata !{metadata !693, metadata !678, metadata !204}
!693 = metadata !{i32 786448, null, null, null, i32 0, i64 0, i64 0, i64 0, i32 0, metadata !415} ; [ DW_TAG_reference_type ]
!694 = metadata !{i32 786478, i32 0, metadata !415, metadata !"operator=", metadata !"operator=", metadata !"_ZN12ap_range_refILi1026ELb0EEaSERKS0_", metadata !124, i32 965, metadata !695, i1 false, i1 false, i32 0, i32 0, null, i32 256, i1 false, null, null, i32 0, metadata !136, i32 965} ; [ DW_TAG_subprogram ]
!695 = metadata !{i32 786453, i32 0, metadata !"", i32 0, i32 0, i64 0, i64 0, i64 0, i32 0, null, metadata !696, i32 0, i32 0} ; [ DW_TAG_subroutine_type ]
!696 = metadata !{metadata !693, metadata !678, metadata !413}
!697 = metadata !{i32 786478, i32 0, metadata !415, metadata !"operator,", metadata !"operator,", metadata !"_ZN12ap_range_refILi1026ELb0EEcmER11ap_int_baseILi1026ELb0ELb0EE", metadata !124, i32 1020, metadata !698, i1 false, i1 false, i32 0, i32 0, null, i32 256, i1 false, null, null, i32 0, metadata !136, i32 1020} ; [ DW_TAG_subprogram ]
!698 = metadata !{i32 786453, i32 0, metadata !"", i32 0, i32 0, i64 0, i64 0, i64 0, i32 0, null, metadata !699, i32 0, i32 0} ; [ DW_TAG_subroutine_type ]
!699 = metadata !{metadata !700, metadata !678, metadata !418}
!700 = metadata !{i32 786434, null, metadata !"ap_concat_ref<1026, ap_range_ref<1026, false>, 1026, ap_int_base<1026, false, false> >", metadata !124, i32 686, i32 0, i32 0, i32 0, i32 4, null, null, i32 0} ; [ DW_TAG_class_type ]
!701 = metadata !{i32 786478, i32 0, metadata !415, metadata !"length", metadata !"length", metadata !"_ZNK12ap_range_refILi1026ELb0EE6lengthEv", metadata !124, i32 1131, metadata !702, i1 false, i1 false, i32 0, i32 0, null, i32 256, i1 false, null, null, i32 0, metadata !136, i32 1131} ; [ DW_TAG_subprogram ]
!702 = metadata !{i32 786453, i32 0, metadata !"", i32 0, i32 0, i64 0, i64 0, i64 0, i32 0, null, metadata !703, i32 0, i32 0} ; [ DW_TAG_subroutine_type ]
!703 = metadata !{metadata !140, metadata !686}
!704 = metadata !{i32 786478, i32 0, metadata !415, metadata !"to_int", metadata !"to_int", metadata !"_ZNK12ap_range_refILi1026ELb0EE6to_intEv", metadata !124, i32 1135, metadata !702, i1 false, i1 false, i32 0, i32 0, null, i32 256, i1 false, null, null, i32 0, metadata !136, i32 1135} ; [ DW_TAG_subprogram ]
!705 = metadata !{i32 786478, i32 0, metadata !415, metadata !"to_uint", metadata !"to_uint", metadata !"_ZNK12ap_range_refILi1026ELb0EE7to_uintEv", metadata !124, i32 1138, metadata !706, i1 false, i1 false, i32 0, i32 0, null, i32 256, i1 false, null, null, i32 0, metadata !136, i32 1138} ; [ DW_TAG_subprogram ]
!706 = metadata !{i32 786453, i32 0, metadata !"", i32 0, i32 0, i64 0, i64 0, i64 0, i32 0, null, metadata !707, i32 0, i32 0} ; [ DW_TAG_subroutine_type ]
!707 = metadata !{metadata !186, metadata !686}
!708 = metadata !{i32 786478, i32 0, metadata !415, metadata !"to_long", metadata !"to_long", metadata !"_ZNK12ap_range_refILi1026ELb0EE7to_longEv", metadata !124, i32 1141, metadata !709, i1 false, i1 false, i32 0, i32 0, null, i32 256, i1 false, null, null, i32 0, metadata !136, i32 1141} ; [ DW_TAG_subprogram ]
!709 = metadata !{i32 786453, i32 0, metadata !"", i32 0, i32 0, i64 0, i64 0, i64 0, i32 0, null, metadata !710, i32 0, i32 0} ; [ DW_TAG_subroutine_type ]
!710 = metadata !{metadata !190, metadata !686}
!711 = metadata !{i32 786478, i32 0, metadata !415, metadata !"to_ulong", metadata !"to_ulong", metadata !"_ZNK12ap_range_refILi1026ELb0EE8to_ulongEv", metadata !124, i32 1144, metadata !712, i1 false, i1 false, i32 0, i32 0, null, i32 256, i1 false, null, null, i32 0, metadata !136, i32 1144} ; [ DW_TAG_subprogram ]
!712 = metadata !{i32 786453, i32 0, metadata !"", i32 0, i32 0, i64 0, i64 0, i64 0, i32 0, null, metadata !713, i32 0, i32 0} ; [ DW_TAG_subroutine_type ]
!713 = metadata !{metadata !194, metadata !686}
!714 = metadata !{i32 786478, i32 0, metadata !415, metadata !"to_int64", metadata !"to_int64", metadata !"_ZNK12ap_range_refILi1026ELb0EE8to_int64Ev", metadata !124, i32 1147, metadata !715, i1 false, i1 false, i32 0, i32 0, null, i32 256, i1 false, null, null, i32 0, metadata !136, i32 1147} ; [ DW_TAG_subprogram ]
!715 = metadata !{i32 786453, i32 0, metadata !"", i32 0, i32 0, i64 0, i64 0, i64 0, i32 0, null, metadata !716, i32 0, i32 0} ; [ DW_TAG_subroutine_type ]
!716 = metadata !{metadata !198, metadata !686}
!717 = metadata !{i32 786478, i32 0, metadata !415, metadata !"to_uint64", metadata !"to_uint64", metadata !"_ZNK12ap_range_refILi1026ELb0EE9to_uint64Ev", metadata !124, i32 1150, metadata !718, i1 false, i1 false, i32 0, i32 0, null, i32 256, i1 false, null, null, i32 0, metadata !136, i32 1150} ; [ DW_TAG_subprogram ]
!718 = metadata !{i32 786453, i32 0, metadata !"", i32 0, i32 0, i64 0, i64 0, i64 0, i32 0, null, metadata !719, i32 0, i32 0} ; [ DW_TAG_subroutine_type ]
!719 = metadata !{metadata !203, metadata !686}
!720 = metadata !{i32 786478, i32 0, metadata !415, metadata !"and_reduce", metadata !"and_reduce", metadata !"_ZNK12ap_range_refILi1026ELb0EE10and_reduceEv", metadata !124, i32 1153, metadata !721, i1 false, i1 false, i32 0, i32 0, null, i32 256, i1 false, null, null, i32 0, metadata !136, i32 1153} ; [ DW_TAG_subprogram ]
!721 = metadata !{i32 786453, i32 0, metadata !"", i32 0, i32 0, i64 0, i64 0, i64 0, i32 0, null, metadata !722, i32 0, i32 0} ; [ DW_TAG_subroutine_type ]
!722 = metadata !{metadata !142, metadata !686}
!723 = metadata !{i32 786478, i32 0, metadata !415, metadata !"or_reduce", metadata !"or_reduce", metadata !"_ZNK12ap_range_refILi1026ELb0EE9or_reduceEv", metadata !124, i32 1164, metadata !721, i1 false, i1 false, i32 0, i32 0, null, i32 256, i1 false, null, null, i32 0, metadata !136, i32 1164} ; [ DW_TAG_subprogram ]
!724 = metadata !{i32 786478, i32 0, metadata !415, metadata !"xor_reduce", metadata !"xor_reduce", metadata !"_ZNK12ap_range_refILi1026ELb0EE10xor_reduceEv", metadata !124, i32 1175, metadata !721, i1 false, i1 false, i32 0, i32 0, null, i32 256, i1 false, null, null, i32 0, metadata !136, i32 1175} ; [ DW_TAG_subprogram ]
!725 = metadata !{i32 786478, i32 0, metadata !415, metadata !"~ap_range_ref", metadata !"~ap_range_ref", metadata !"", metadata !124, i32 923, metadata !726, i1 false, i1 false, i32 0, i32 0, null, i32 320, i1 false, null, null, i32 0, metadata !136, i32 923} ; [ DW_TAG_subprogram ]
!726 = metadata !{i32 786453, i32 0, metadata !"", i32 0, i32 0, i64 0, i64 0, i64 0, i32 0, null, metadata !727, i32 0, i32 0} ; [ DW_TAG_subroutine_type ]
!727 = metadata !{null, metadata !678}
!728 = metadata !{metadata !672, metadata !141}
!729 = metadata !{i32 786478, i32 0, metadata !119, metadata !"ap_uint", metadata !"ap_uint", metadata !"", metadata !120, i32 245, metadata !730, i1 false, i1 false, i32 0, i32 0, null, i32 256, i1 false, null, null, i32 0, metadata !136, i32 245} ; [ DW_TAG_subprogram ]
!730 = metadata !{i32 786453, i32 0, metadata !"", i32 0, i32 0, i64 0, i64 0, i64 0, i32 0, null, metadata !731, i32 0, i32 0} ; [ DW_TAG_subroutine_type ]
!731 = metadata !{null, metadata !409, metadata !142}
!732 = metadata !{i32 786478, i32 0, metadata !119, metadata !"ap_uint", metadata !"ap_uint", metadata !"", metadata !120, i32 246, metadata !733, i1 false, i1 false, i32 0, i32 0, null, i32 256, i1 false, null, null, i32 0, metadata !136, i32 246} ; [ DW_TAG_subprogram ]
!733 = metadata !{i32 786453, i32 0, metadata !"", i32 0, i32 0, i64 0, i64 0, i64 0, i32 0, null, metadata !734, i32 0, i32 0} ; [ DW_TAG_subroutine_type ]
!734 = metadata !{null, metadata !409, metadata !167}
!735 = metadata !{i32 786478, i32 0, metadata !119, metadata !"ap_uint", metadata !"ap_uint", metadata !"", metadata !120, i32 247, metadata !736, i1 false, i1 false, i32 0, i32 0, null, i32 256, i1 false, null, null, i32 0, metadata !136, i32 247} ; [ DW_TAG_subprogram ]
!736 = metadata !{i32 786453, i32 0, metadata !"", i32 0, i32 0, i64 0, i64 0, i64 0, i32 0, null, metadata !737, i32 0, i32 0} ; [ DW_TAG_subroutine_type ]
!737 = metadata !{null, metadata !409, metadata !171}
!738 = metadata !{i32 786478, i32 0, metadata !119, metadata !"ap_uint", metadata !"ap_uint", metadata !"", metadata !120, i32 248, metadata !739, i1 false, i1 false, i32 0, i32 0, null, i32 256, i1 false, null, null, i32 0, metadata !136, i32 248} ; [ DW_TAG_subprogram ]
!739 = metadata !{i32 786453, i32 0, metadata !"", i32 0, i32 0, i64 0, i64 0, i64 0, i32 0, null, metadata !740, i32 0, i32 0} ; [ DW_TAG_subroutine_type ]
!740 = metadata !{null, metadata !409, metadata !175}
!741 = metadata !{i32 786478, i32 0, metadata !119, metadata !"ap_uint", metadata !"ap_uint", metadata !"", metadata !120, i32 249, metadata !742, i1 false, i1 false, i32 0, i32 0, null, i32 256, i1 false, null, null, i32 0, metadata !136, i32 249} ; [ DW_TAG_subprogram ]
!742 = metadata !{i32 786453, i32 0, metadata !"", i32 0, i32 0, i64 0, i64 0, i64 0, i32 0, null, metadata !743, i32 0, i32 0} ; [ DW_TAG_subroutine_type ]
!743 = metadata !{null, metadata !409, metadata !179}
!744 = metadata !{i32 786478, i32 0, metadata !119, metadata !"ap_uint", metadata !"ap_uint", metadata !"", metadata !120, i32 250, metadata !745, i1 false, i1 false, i32 0, i32 0, null, i32 256, i1 false, null, null, i32 0, metadata !136, i32 250} ; [ DW_TAG_subprogram ]
!745 = metadata !{i32 786453, i32 0, metadata !"", i32 0, i32 0, i64 0, i64 0, i64 0, i32 0, null, metadata !746, i32 0, i32 0} ; [ DW_TAG_subroutine_type ]
!746 = metadata !{null, metadata !409, metadata !140}
!747 = metadata !{i32 786478, i32 0, metadata !119, metadata !"ap_uint", metadata !"ap_uint", metadata !"", metadata !120, i32 251, metadata !748, i1 false, i1 false, i32 0, i32 0, null, i32 256, i1 false, null, null, i32 0, metadata !136, i32 251} ; [ DW_TAG_subprogram ]
!748 = metadata !{i32 786453, i32 0, metadata !"", i32 0, i32 0, i64 0, i64 0, i64 0, i32 0, null, metadata !749, i32 0, i32 0} ; [ DW_TAG_subroutine_type ]
!749 = metadata !{null, metadata !409, metadata !186}
!750 = metadata !{i32 786478, i32 0, metadata !119, metadata !"ap_uint", metadata !"ap_uint", metadata !"", metadata !120, i32 252, metadata !751, i1 false, i1 false, i32 0, i32 0, null, i32 256, i1 false, null, null, i32 0, metadata !136, i32 252} ; [ DW_TAG_subprogram ]
!751 = metadata !{i32 786453, i32 0, metadata !"", i32 0, i32 0, i64 0, i64 0, i64 0, i32 0, null, metadata !752, i32 0, i32 0} ; [ DW_TAG_subroutine_type ]
!752 = metadata !{null, metadata !409, metadata !190}
!753 = metadata !{i32 786478, i32 0, metadata !119, metadata !"ap_uint", metadata !"ap_uint", metadata !"", metadata !120, i32 253, metadata !754, i1 false, i1 false, i32 0, i32 0, null, i32 256, i1 false, null, null, i32 0, metadata !136, i32 253} ; [ DW_TAG_subprogram ]
!754 = metadata !{i32 786453, i32 0, metadata !"", i32 0, i32 0, i64 0, i64 0, i64 0, i32 0, null, metadata !755, i32 0, i32 0} ; [ DW_TAG_subroutine_type ]
!755 = metadata !{null, metadata !409, metadata !194}
!756 = metadata !{i32 786478, i32 0, metadata !119, metadata !"ap_uint", metadata !"ap_uint", metadata !"", metadata !120, i32 254, metadata !757, i1 false, i1 false, i32 0, i32 0, null, i32 256, i1 false, null, null, i32 0, metadata !136, i32 254} ; [ DW_TAG_subprogram ]
!757 = metadata !{i32 786453, i32 0, metadata !"", i32 0, i32 0, i64 0, i64 0, i64 0, i32 0, null, metadata !758, i32 0, i32 0} ; [ DW_TAG_subroutine_type ]
!758 = metadata !{null, metadata !409, metadata !204}
!759 = metadata !{i32 786478, i32 0, metadata !119, metadata !"ap_uint", metadata !"ap_uint", metadata !"", metadata !120, i32 255, metadata !760, i1 false, i1 false, i32 0, i32 0, null, i32 256, i1 false, null, null, i32 0, metadata !136, i32 255} ; [ DW_TAG_subprogram ]
!760 = metadata !{i32 786453, i32 0, metadata !"", i32 0, i32 0, i64 0, i64 0, i64 0, i32 0, null, metadata !761, i32 0, i32 0} ; [ DW_TAG_subroutine_type ]
!761 = metadata !{null, metadata !409, metadata !199}
!762 = metadata !{i32 786478, i32 0, metadata !119, metadata !"ap_uint", metadata !"ap_uint", metadata !"", metadata !120, i32 256, metadata !763, i1 false, i1 false, i32 0, i32 0, null, i32 256, i1 false, null, null, i32 0, metadata !136, i32 256} ; [ DW_TAG_subprogram ]
!763 = metadata !{i32 786453, i32 0, metadata !"", i32 0, i32 0, i64 0, i64 0, i64 0, i32 0, null, metadata !764, i32 0, i32 0} ; [ DW_TAG_subroutine_type ]
!764 = metadata !{null, metadata !409, metadata !208}
!765 = metadata !{i32 786478, i32 0, metadata !119, metadata !"ap_uint", metadata !"ap_uint", metadata !"", metadata !120, i32 257, metadata !766, i1 false, i1 false, i32 0, i32 0, null, i32 256, i1 false, null, null, i32 0, metadata !136, i32 257} ; [ DW_TAG_subprogram ]
!766 = metadata !{i32 786453, i32 0, metadata !"", i32 0, i32 0, i64 0, i64 0, i64 0, i32 0, null, metadata !767, i32 0, i32 0} ; [ DW_TAG_subroutine_type ]
!767 = metadata !{null, metadata !409, metadata !212}
!768 = metadata !{i32 786478, i32 0, metadata !119, metadata !"ap_uint", metadata !"ap_uint", metadata !"", metadata !120, i32 259, metadata !769, i1 false, i1 false, i32 0, i32 0, null, i32 256, i1 false, null, null, i32 0, metadata !136, i32 259} ; [ DW_TAG_subprogram ]
!769 = metadata !{i32 786453, i32 0, metadata !"", i32 0, i32 0, i64 0, i64 0, i64 0, i32 0, null, metadata !770, i32 0, i32 0} ; [ DW_TAG_subroutine_type ]
!770 = metadata !{null, metadata !409, metadata !216}
!771 = metadata !{i32 786478, i32 0, metadata !119, metadata !"ap_uint", metadata !"ap_uint", metadata !"", metadata !120, i32 260, metadata !772, i1 false, i1 false, i32 0, i32 0, null, i32 256, i1 false, null, null, i32 0, metadata !136, i32 260} ; [ DW_TAG_subprogram ]
!772 = metadata !{i32 786453, i32 0, metadata !"", i32 0, i32 0, i64 0, i64 0, i64 0, i32 0, null, metadata !773, i32 0, i32 0} ; [ DW_TAG_subroutine_type ]
!773 = metadata !{null, metadata !409, metadata !216, metadata !167}
!774 = metadata !{i32 786478, i32 0, metadata !119, metadata !"operator=", metadata !"operator=", metadata !"_ZNV7ap_uintILi1024EEaSERKS0_", metadata !120, i32 263, metadata !775, i1 false, i1 false, i32 0, i32 0, null, i32 256, i1 false, null, null, i32 0, metadata !136, i32 263} ; [ DW_TAG_subprogram ]
!775 = metadata !{i32 786453, i32 0, metadata !"", i32 0, i32 0, i64 0, i64 0, i64 0, i32 0, null, metadata !776, i32 0, i32 0} ; [ DW_TAG_subroutine_type ]
!776 = metadata !{null, metadata !777, metadata !779}
!777 = metadata !{i32 786447, i32 0, metadata !"", i32 0, i32 0, i64 64, i64 64, i64 0, i32 64, metadata !778} ; [ DW_TAG_pointer_type ]
!778 = metadata !{i32 786485, null, metadata !"", null, i32 0, i64 0, i64 0, i64 0, i32 0, metadata !119} ; [ DW_TAG_volatile_type ]
!779 = metadata !{i32 786448, null, null, null, i32 0, i64 0, i64 0, i64 0, i32 0, metadata !780} ; [ DW_TAG_reference_type ]
!780 = metadata !{i32 786470, null, metadata !"", null, i32 0, i64 0, i64 0, i64 0, i32 0, metadata !119} ; [ DW_TAG_const_type ]
!781 = metadata !{i32 786478, i32 0, metadata !119, metadata !"operator=", metadata !"operator=", metadata !"_ZNV7ap_uintILi1024EEaSERVKS0_", metadata !120, i32 267, metadata !782, i1 false, i1 false, i32 0, i32 0, null, i32 256, i1 false, null, null, i32 0, metadata !136, i32 267} ; [ DW_TAG_subprogram ]
!782 = metadata !{i32 786453, i32 0, metadata !"", i32 0, i32 0, i64 0, i64 0, i64 0, i32 0, null, metadata !783, i32 0, i32 0} ; [ DW_TAG_subroutine_type ]
!783 = metadata !{null, metadata !777, metadata !784}
!784 = metadata !{i32 786448, null, null, null, i32 0, i64 0, i64 0, i64 0, i32 0, metadata !785} ; [ DW_TAG_reference_type ]
!785 = metadata !{i32 786470, null, metadata !"", null, i32 0, i64 0, i64 0, i64 0, i32 0, metadata !778} ; [ DW_TAG_const_type ]
!786 = metadata !{i32 786478, i32 0, metadata !119, metadata !"operator=", metadata !"operator=", metadata !"_ZN7ap_uintILi1024EEaSERVKS0_", metadata !120, i32 271, metadata !787, i1 false, i1 false, i32 0, i32 0, null, i32 256, i1 false, null, null, i32 0, metadata !136, i32 271} ; [ DW_TAG_subprogram ]
!787 = metadata !{i32 786453, i32 0, metadata !"", i32 0, i32 0, i64 0, i64 0, i64 0, i32 0, null, metadata !788, i32 0, i32 0} ; [ DW_TAG_subroutine_type ]
!788 = metadata !{metadata !789, metadata !409, metadata !784}
!789 = metadata !{i32 786448, null, null, null, i32 0, i64 0, i64 0, i64 0, i32 0, metadata !119} ; [ DW_TAG_reference_type ]
!790 = metadata !{i32 786478, i32 0, metadata !119, metadata !"operator=", metadata !"operator=", metadata !"_ZN7ap_uintILi1024EEaSERKS0_", metadata !120, i32 276, metadata !791, i1 false, i1 false, i32 0, i32 0, null, i32 256, i1 false, null, null, i32 0, metadata !136, i32 276} ; [ DW_TAG_subprogram ]
!791 = metadata !{i32 786453, i32 0, metadata !"", i32 0, i32 0, i64 0, i64 0, i64 0, i32 0, null, metadata !792, i32 0, i32 0} ; [ DW_TAG_subroutine_type ]
!792 = metadata !{metadata !789, metadata !409, metadata !779}
!793 = metadata !{i32 786478, i32 0, metadata !119, metadata !"~ap_uint", metadata !"~ap_uint", metadata !"", metadata !120, i32 180, metadata !407, i1 false, i1 false, i32 0, i32 0, null, i32 320, i1 false, null, null, i32 0, metadata !136, i32 180} ; [ DW_TAG_subprogram ]
!794 = metadata !{metadata !404}
!795 = metadata !{i32 786447, null, metadata !"", null, i32 0, i64 64, i64 64, i64 0, i32 0, metadata !118} ; [ DW_TAG_pointer_type ]
!796 = metadata !{i32 790533, metadata !797, metadata !"op.V", null, i32 185, metadata !893, i32 0, i32 0} ; [ DW_TAG_arg_variable_field_ro ]
!797 = metadata !{i32 786689, metadata !798, metadata !"op", metadata !120, i32 33554617, metadata !779, i32 0, i32 0} ; [ DW_TAG_arg_variable ]
!798 = metadata !{i32 786478, i32 0, null, metadata !"ap_uint<1024>", metadata !"ap_uint<1024>", metadata !"_ZN7ap_uintILi1026EEC1ILi1024EEERKS_IXT_EE", metadata !120, i32 185, metadata !799, i1 false, i1 true, i32 0, i32 0, null, i32 256, i1 false, null, metadata !815, metadata !814, metadata !136, i32 185} ; [ DW_TAG_subprogram ]
!799 = metadata !{i32 786453, i32 0, metadata !"", i32 0, i32 0, i64 0, i64 0, i64 0, i32 0, null, metadata !800, i32 0, i32 0} ; [ DW_TAG_subroutine_type ]
!800 = metadata !{null, metadata !801, metadata !779}
!801 = metadata !{i32 786447, i32 0, metadata !"", i32 0, i32 0, i64 64, i64 64, i64 0, i32 64, metadata !802} ; [ DW_TAG_pointer_type ]
!802 = metadata !{i32 786434, null, metadata !"ap_uint<1026>", metadata !120, i32 180, i64 1088, i64 64, i32 0, i32 0, null, metadata !803, i32 0, null, metadata !892} ; [ DW_TAG_class_type ]
!803 = metadata !{metadata !804, metadata !805, metadata !808, metadata !814, metadata !816, metadata !822, metadata !825, metadata !828, metadata !831, metadata !834, metadata !837, metadata !840, metadata !843, metadata !846, metadata !849, metadata !852, metadata !855, metadata !858, metadata !861, metadata !864, metadata !867, metadata !870, metadata !873, metadata !876, metadata !880, metadata !883, metadata !887, metadata !890, metadata !891}
!804 = metadata !{i32 786460, metadata !802, null, metadata !120, i32 0, i64 0, i64 0, i64 0, i32 0, metadata !419} ; [ DW_TAG_inheritance ]
!805 = metadata !{i32 786478, i32 0, metadata !802, metadata !"ap_uint", metadata !"ap_uint", metadata !"", metadata !120, i32 183, metadata !806, i1 false, i1 false, i32 0, i32 0, null, i32 256, i1 false, null, null, i32 0, metadata !136, i32 183} ; [ DW_TAG_subprogram ]
!806 = metadata !{i32 786453, i32 0, metadata !"", i32 0, i32 0, i64 0, i64 0, i64 0, i32 0, null, metadata !807, i32 0, i32 0} ; [ DW_TAG_subroutine_type ]
!807 = metadata !{null, metadata !801}
!808 = metadata !{i32 786478, i32 0, metadata !802, metadata !"ap_uint<1026>", metadata !"ap_uint<1026>", metadata !"", metadata !120, i32 185, metadata !809, i1 false, i1 false, i32 0, i32 0, null, i32 256, i1 false, null, metadata !813, i32 0, metadata !136, i32 185} ; [ DW_TAG_subprogram ]
!809 = metadata !{i32 786453, i32 0, metadata !"", i32 0, i32 0, i64 0, i64 0, i64 0, i32 0, null, metadata !810, i32 0, i32 0} ; [ DW_TAG_subroutine_type ]
!810 = metadata !{null, metadata !801, metadata !811}
!811 = metadata !{i32 786448, null, null, null, i32 0, i64 0, i64 0, i64 0, i32 0, metadata !812} ; [ DW_TAG_reference_type ]
!812 = metadata !{i32 786470, null, metadata !"", null, i32 0, i64 0, i64 0, i64 0, i32 0, metadata !802} ; [ DW_TAG_const_type ]
!813 = metadata !{metadata !447}
!814 = metadata !{i32 786478, i32 0, metadata !802, metadata !"ap_uint<1024>", metadata !"ap_uint<1024>", metadata !"", metadata !120, i32 185, metadata !799, i1 false, i1 false, i32 0, i32 0, null, i32 256, i1 false, null, metadata !815, i32 0, metadata !136, i32 185} ; [ DW_TAG_subprogram ]
!815 = metadata !{metadata !153}
!816 = metadata !{i32 786478, i32 0, metadata !802, metadata !"ap_uint<1026>", metadata !"ap_uint<1026>", metadata !"", metadata !120, i32 191, metadata !817, i1 false, i1 false, i32 0, i32 0, null, i32 256, i1 false, null, metadata !813, i32 0, metadata !136, i32 191} ; [ DW_TAG_subprogram ]
!817 = metadata !{i32 786453, i32 0, metadata !"", i32 0, i32 0, i64 0, i64 0, i64 0, i32 0, null, metadata !818, i32 0, i32 0} ; [ DW_TAG_subroutine_type ]
!818 = metadata !{null, metadata !801, metadata !819}
!819 = metadata !{i32 786448, null, null, null, i32 0, i64 0, i64 0, i64 0, i32 0, metadata !820} ; [ DW_TAG_reference_type ]
!820 = metadata !{i32 786470, null, metadata !"", null, i32 0, i64 0, i64 0, i64 0, i32 0, metadata !821} ; [ DW_TAG_const_type ]
!821 = metadata !{i32 786485, null, metadata !"", null, i32 0, i64 0, i64 0, i64 0, i32 0, metadata !802} ; [ DW_TAG_volatile_type ]
!822 = metadata !{i32 786478, i32 0, metadata !802, metadata !"ap_uint<1024>", metadata !"ap_uint<1024>", metadata !"", metadata !120, i32 191, metadata !823, i1 false, i1 false, i32 0, i32 0, null, i32 256, i1 false, null, metadata !815, i32 0, metadata !136, i32 191} ; [ DW_TAG_subprogram ]
!823 = metadata !{i32 786453, i32 0, metadata !"", i32 0, i32 0, i64 0, i64 0, i64 0, i32 0, null, metadata !824, i32 0, i32 0} ; [ DW_TAG_subroutine_type ]
!824 = metadata !{null, metadata !801, metadata !784}
!825 = metadata !{i32 786478, i32 0, metadata !802, metadata !"ap_uint<1026, false>", metadata !"ap_uint<1026, false>", metadata !"", metadata !120, i32 226, metadata !826, i1 false, i1 false, i32 0, i32 0, null, i32 256, i1 false, null, metadata !446, i32 0, metadata !136, i32 226} ; [ DW_TAG_subprogram ]
!826 = metadata !{i32 786453, i32 0, metadata !"", i32 0, i32 0, i64 0, i64 0, i64 0, i32 0, null, metadata !827, i32 0, i32 0} ; [ DW_TAG_subroutine_type ]
!827 = metadata !{null, metadata !801, metadata !444}
!828 = metadata !{i32 786478, i32 0, metadata !802, metadata !"ap_uint<1024, false>", metadata !"ap_uint<1024, false>", metadata !"", metadata !120, i32 226, metadata !829, i1 false, i1 false, i32 0, i32 0, null, i32 256, i1 false, null, metadata !152, i32 0, metadata !136, i32 226} ; [ DW_TAG_subprogram ]
!829 = metadata !{i32 786453, i32 0, metadata !"", i32 0, i32 0, i64 0, i64 0, i64 0, i32 0, null, metadata !830, i32 0, i32 0} ; [ DW_TAG_subroutine_type ]
!830 = metadata !{null, metadata !801, metadata !150}
!831 = metadata !{i32 786478, i32 0, metadata !802, metadata !"ap_uint", metadata !"ap_uint", metadata !"", metadata !120, i32 245, metadata !832, i1 false, i1 false, i32 0, i32 0, null, i32 256, i1 false, null, null, i32 0, metadata !136, i32 245} ; [ DW_TAG_subprogram ]
!832 = metadata !{i32 786453, i32 0, metadata !"", i32 0, i32 0, i64 0, i64 0, i64 0, i32 0, null, metadata !833, i32 0, i32 0} ; [ DW_TAG_subroutine_type ]
!833 = metadata !{null, metadata !801, metadata !142}
!834 = metadata !{i32 786478, i32 0, metadata !802, metadata !"ap_uint", metadata !"ap_uint", metadata !"", metadata !120, i32 246, metadata !835, i1 false, i1 false, i32 0, i32 0, null, i32 256, i1 false, null, null, i32 0, metadata !136, i32 246} ; [ DW_TAG_subprogram ]
!835 = metadata !{i32 786453, i32 0, metadata !"", i32 0, i32 0, i64 0, i64 0, i64 0, i32 0, null, metadata !836, i32 0, i32 0} ; [ DW_TAG_subroutine_type ]
!836 = metadata !{null, metadata !801, metadata !167}
!837 = metadata !{i32 786478, i32 0, metadata !802, metadata !"ap_uint", metadata !"ap_uint", metadata !"", metadata !120, i32 247, metadata !838, i1 false, i1 false, i32 0, i32 0, null, i32 256, i1 false, null, null, i32 0, metadata !136, i32 247} ; [ DW_TAG_subprogram ]
!838 = metadata !{i32 786453, i32 0, metadata !"", i32 0, i32 0, i64 0, i64 0, i64 0, i32 0, null, metadata !839, i32 0, i32 0} ; [ DW_TAG_subroutine_type ]
!839 = metadata !{null, metadata !801, metadata !171}
!840 = metadata !{i32 786478, i32 0, metadata !802, metadata !"ap_uint", metadata !"ap_uint", metadata !"", metadata !120, i32 248, metadata !841, i1 false, i1 false, i32 0, i32 0, null, i32 256, i1 false, null, null, i32 0, metadata !136, i32 248} ; [ DW_TAG_subprogram ]
!841 = metadata !{i32 786453, i32 0, metadata !"", i32 0, i32 0, i64 0, i64 0, i64 0, i32 0, null, metadata !842, i32 0, i32 0} ; [ DW_TAG_subroutine_type ]
!842 = metadata !{null, metadata !801, metadata !175}
!843 = metadata !{i32 786478, i32 0, metadata !802, metadata !"ap_uint", metadata !"ap_uint", metadata !"", metadata !120, i32 249, metadata !844, i1 false, i1 false, i32 0, i32 0, null, i32 256, i1 false, null, null, i32 0, metadata !136, i32 249} ; [ DW_TAG_subprogram ]
!844 = metadata !{i32 786453, i32 0, metadata !"", i32 0, i32 0, i64 0, i64 0, i64 0, i32 0, null, metadata !845, i32 0, i32 0} ; [ DW_TAG_subroutine_type ]
!845 = metadata !{null, metadata !801, metadata !179}
!846 = metadata !{i32 786478, i32 0, metadata !802, metadata !"ap_uint", metadata !"ap_uint", metadata !"", metadata !120, i32 250, metadata !847, i1 false, i1 false, i32 0, i32 0, null, i32 256, i1 false, null, null, i32 0, metadata !136, i32 250} ; [ DW_TAG_subprogram ]
!847 = metadata !{i32 786453, i32 0, metadata !"", i32 0, i32 0, i64 0, i64 0, i64 0, i32 0, null, metadata !848, i32 0, i32 0} ; [ DW_TAG_subroutine_type ]
!848 = metadata !{null, metadata !801, metadata !140}
!849 = metadata !{i32 786478, i32 0, metadata !802, metadata !"ap_uint", metadata !"ap_uint", metadata !"", metadata !120, i32 251, metadata !850, i1 false, i1 false, i32 0, i32 0, null, i32 256, i1 false, null, null, i32 0, metadata !136, i32 251} ; [ DW_TAG_subprogram ]
!850 = metadata !{i32 786453, i32 0, metadata !"", i32 0, i32 0, i64 0, i64 0, i64 0, i32 0, null, metadata !851, i32 0, i32 0} ; [ DW_TAG_subroutine_type ]
!851 = metadata !{null, metadata !801, metadata !186}
!852 = metadata !{i32 786478, i32 0, metadata !802, metadata !"ap_uint", metadata !"ap_uint", metadata !"", metadata !120, i32 252, metadata !853, i1 false, i1 false, i32 0, i32 0, null, i32 256, i1 false, null, null, i32 0, metadata !136, i32 252} ; [ DW_TAG_subprogram ]
!853 = metadata !{i32 786453, i32 0, metadata !"", i32 0, i32 0, i64 0, i64 0, i64 0, i32 0, null, metadata !854, i32 0, i32 0} ; [ DW_TAG_subroutine_type ]
!854 = metadata !{null, metadata !801, metadata !190}
!855 = metadata !{i32 786478, i32 0, metadata !802, metadata !"ap_uint", metadata !"ap_uint", metadata !"", metadata !120, i32 253, metadata !856, i1 false, i1 false, i32 0, i32 0, null, i32 256, i1 false, null, null, i32 0, metadata !136, i32 253} ; [ DW_TAG_subprogram ]
!856 = metadata !{i32 786453, i32 0, metadata !"", i32 0, i32 0, i64 0, i64 0, i64 0, i32 0, null, metadata !857, i32 0, i32 0} ; [ DW_TAG_subroutine_type ]
!857 = metadata !{null, metadata !801, metadata !194}
!858 = metadata !{i32 786478, i32 0, metadata !802, metadata !"ap_uint", metadata !"ap_uint", metadata !"", metadata !120, i32 254, metadata !859, i1 false, i1 false, i32 0, i32 0, null, i32 256, i1 false, null, null, i32 0, metadata !136, i32 254} ; [ DW_TAG_subprogram ]
!859 = metadata !{i32 786453, i32 0, metadata !"", i32 0, i32 0, i64 0, i64 0, i64 0, i32 0, null, metadata !860, i32 0, i32 0} ; [ DW_TAG_subroutine_type ]
!860 = metadata !{null, metadata !801, metadata !204}
!861 = metadata !{i32 786478, i32 0, metadata !802, metadata !"ap_uint", metadata !"ap_uint", metadata !"", metadata !120, i32 255, metadata !862, i1 false, i1 false, i32 0, i32 0, null, i32 256, i1 false, null, null, i32 0, metadata !136, i32 255} ; [ DW_TAG_subprogram ]
!862 = metadata !{i32 786453, i32 0, metadata !"", i32 0, i32 0, i64 0, i64 0, i64 0, i32 0, null, metadata !863, i32 0, i32 0} ; [ DW_TAG_subroutine_type ]
!863 = metadata !{null, metadata !801, metadata !199}
!864 = metadata !{i32 786478, i32 0, metadata !802, metadata !"ap_uint", metadata !"ap_uint", metadata !"", metadata !120, i32 256, metadata !865, i1 false, i1 false, i32 0, i32 0, null, i32 256, i1 false, null, null, i32 0, metadata !136, i32 256} ; [ DW_TAG_subprogram ]
!865 = metadata !{i32 786453, i32 0, metadata !"", i32 0, i32 0, i64 0, i64 0, i64 0, i32 0, null, metadata !866, i32 0, i32 0} ; [ DW_TAG_subroutine_type ]
!866 = metadata !{null, metadata !801, metadata !208}
!867 = metadata !{i32 786478, i32 0, metadata !802, metadata !"ap_uint", metadata !"ap_uint", metadata !"", metadata !120, i32 257, metadata !868, i1 false, i1 false, i32 0, i32 0, null, i32 256, i1 false, null, null, i32 0, metadata !136, i32 257} ; [ DW_TAG_subprogram ]
!868 = metadata !{i32 786453, i32 0, metadata !"", i32 0, i32 0, i64 0, i64 0, i64 0, i32 0, null, metadata !869, i32 0, i32 0} ; [ DW_TAG_subroutine_type ]
!869 = metadata !{null, metadata !801, metadata !212}
!870 = metadata !{i32 786478, i32 0, metadata !802, metadata !"ap_uint", metadata !"ap_uint", metadata !"", metadata !120, i32 259, metadata !871, i1 false, i1 false, i32 0, i32 0, null, i32 256, i1 false, null, null, i32 0, metadata !136, i32 259} ; [ DW_TAG_subprogram ]
!871 = metadata !{i32 786453, i32 0, metadata !"", i32 0, i32 0, i64 0, i64 0, i64 0, i32 0, null, metadata !872, i32 0, i32 0} ; [ DW_TAG_subroutine_type ]
!872 = metadata !{null, metadata !801, metadata !216}
!873 = metadata !{i32 786478, i32 0, metadata !802, metadata !"ap_uint", metadata !"ap_uint", metadata !"", metadata !120, i32 260, metadata !874, i1 false, i1 false, i32 0, i32 0, null, i32 256, i1 false, null, null, i32 0, metadata !136, i32 260} ; [ DW_TAG_subprogram ]
!874 = metadata !{i32 786453, i32 0, metadata !"", i32 0, i32 0, i64 0, i64 0, i64 0, i32 0, null, metadata !875, i32 0, i32 0} ; [ DW_TAG_subroutine_type ]
!875 = metadata !{null, metadata !801, metadata !216, metadata !167}
!876 = metadata !{i32 786478, i32 0, metadata !802, metadata !"operator=", metadata !"operator=", metadata !"_ZNV7ap_uintILi1026EEaSERKS0_", metadata !120, i32 263, metadata !877, i1 false, i1 false, i32 0, i32 0, null, i32 256, i1 false, null, null, i32 0, metadata !136, i32 263} ; [ DW_TAG_subprogram ]
!877 = metadata !{i32 786453, i32 0, metadata !"", i32 0, i32 0, i64 0, i64 0, i64 0, i32 0, null, metadata !878, i32 0, i32 0} ; [ DW_TAG_subroutine_type ]
!878 = metadata !{null, metadata !879, metadata !811}
!879 = metadata !{i32 786447, i32 0, metadata !"", i32 0, i32 0, i64 64, i64 64, i64 0, i32 64, metadata !821} ; [ DW_TAG_pointer_type ]
!880 = metadata !{i32 786478, i32 0, metadata !802, metadata !"operator=", metadata !"operator=", metadata !"_ZNV7ap_uintILi1026EEaSERVKS0_", metadata !120, i32 267, metadata !881, i1 false, i1 false, i32 0, i32 0, null, i32 256, i1 false, null, null, i32 0, metadata !136, i32 267} ; [ DW_TAG_subprogram ]
!881 = metadata !{i32 786453, i32 0, metadata !"", i32 0, i32 0, i64 0, i64 0, i64 0, i32 0, null, metadata !882, i32 0, i32 0} ; [ DW_TAG_subroutine_type ]
!882 = metadata !{null, metadata !879, metadata !819}
!883 = metadata !{i32 786478, i32 0, metadata !802, metadata !"operator=", metadata !"operator=", metadata !"_ZN7ap_uintILi1026EEaSERVKS0_", metadata !120, i32 271, metadata !884, i1 false, i1 false, i32 0, i32 0, null, i32 256, i1 false, null, null, i32 0, metadata !136, i32 271} ; [ DW_TAG_subprogram ]
!884 = metadata !{i32 786453, i32 0, metadata !"", i32 0, i32 0, i64 0, i64 0, i64 0, i32 0, null, metadata !885, i32 0, i32 0} ; [ DW_TAG_subroutine_type ]
!885 = metadata !{metadata !886, metadata !801, metadata !819}
!886 = metadata !{i32 786448, null, null, null, i32 0, i64 0, i64 0, i64 0, i32 0, metadata !802} ; [ DW_TAG_reference_type ]
!887 = metadata !{i32 786478, i32 0, metadata !802, metadata !"operator=", metadata !"operator=", metadata !"_ZN7ap_uintILi1026EEaSERKS0_", metadata !120, i32 276, metadata !888, i1 false, i1 false, i32 0, i32 0, null, i32 256, i1 false, null, null, i32 0, metadata !136, i32 276} ; [ DW_TAG_subprogram ]
!888 = metadata !{i32 786453, i32 0, metadata !"", i32 0, i32 0, i64 0, i64 0, i64 0, i32 0, null, metadata !889, i32 0, i32 0} ; [ DW_TAG_subroutine_type ]
!889 = metadata !{metadata !886, metadata !801, metadata !811}
!890 = metadata !{i32 786478, i32 0, metadata !802, metadata !"ap_uint", metadata !"ap_uint", metadata !"", metadata !120, i32 180, metadata !809, i1 false, i1 false, i32 0, i32 0, null, i32 320, i1 false, null, null, i32 0, metadata !136, i32 180} ; [ DW_TAG_subprogram ]
!891 = metadata !{i32 786478, i32 0, metadata !802, metadata !"~ap_uint", metadata !"~ap_uint", metadata !"", metadata !120, i32 180, metadata !806, i1 false, i1 false, i32 0, i32 0, null, i32 320, i1 false, null, null, i32 0, metadata !136, i32 180} ; [ DW_TAG_subprogram ]
!892 = metadata !{metadata !672}
!893 = metadata !{i32 786447, null, metadata !"", null, i32 0, i64 0, i64 0, i64 0, i32 0, metadata !894} ; [ DW_TAG_pointer_type ]
!894 = metadata !{i32 786438, null, metadata !"ap_uint<1024>", metadata !120, i32 180, i64 1024, i64 1024, i32 0, i32 0, null, metadata !895, i32 0, null, metadata !794} ; [ DW_TAG_class_field_type ]
!895 = metadata !{metadata !896}
!896 = metadata !{i32 786438, null, metadata !"ap_int_base<1024, false, false>", metadata !124, i32 2341, i64 1024, i64 1024, i32 0, i32 0, null, metadata !897, i32 0, null, metadata !403} ; [ DW_TAG_class_field_type ]
!897 = metadata !{metadata !898}
!898 = metadata !{i32 786438, null, metadata !"ssdm_int<1024 + 1024 * 0, false>", metadata !128, i32 1038, i64 1024, i64 1024, i32 0, i32 0, null, metadata !899, i32 0, null, metadata !138} ; [ DW_TAG_class_field_type ]
!899 = metadata !{metadata !130}
!900 = metadata !{i32 185, i32 74, metadata !798, metadata !901}
!901 = metadata !{i32 13, i32 39, metadata !113, null}
!902 = metadata !{i32 790533, metadata !903, metadata !"op.V", null, i32 185, metadata !893, i32 0, i32 0} ; [ DW_TAG_arg_variable_field_ro ]
!903 = metadata !{i32 786689, metadata !904, metadata !"op", metadata !120, i32 33554617, metadata !779, i32 0, i32 0} ; [ DW_TAG_arg_variable ]
!904 = metadata !{i32 786478, i32 0, null, metadata !"ap_uint<1024>", metadata !"ap_uint<1024>", metadata !"_ZN7ap_uintILi1026EEC2ILi1024EEERKS_IXT_EE", metadata !120, i32 185, metadata !799, i1 false, i1 true, i32 0, i32 0, null, i32 256, i1 false, null, metadata !815, metadata !814, metadata !136, i32 185} ; [ DW_TAG_subprogram ]
!905 = metadata !{i32 185, i32 74, metadata !904, metadata !906}
!906 = metadata !{i32 185, i32 96, metadata !798, metadata !901}
!907 = metadata !{i32 185, i32 80, metadata !908, metadata !906}
!908 = metadata !{i32 786443, metadata !904, i32 185, i32 78, metadata !120, i32 24} ; [ DW_TAG_lexical_block ]
!909 = metadata !{i32 790529, metadata !910, metadata !"X.V", null, i32 13, metadata !911, i32 0, i32 0} ; [ DW_TAG_auto_variable_field ]
!910 = metadata !{i32 786688, metadata !113, metadata !"X", metadata !115, i32 13, metadata !802, i32 0, i32 0} ; [ DW_TAG_auto_variable ]
!911 = metadata !{i32 786438, null, metadata !"ap_uint<1026>", metadata !120, i32 180, i64 1026, i64 64, i32 0, i32 0, null, metadata !912, i32 0, null, metadata !892} ; [ DW_TAG_class_field_type ]
!912 = metadata !{metadata !913}
!913 = metadata !{i32 786438, null, metadata !"ap_int_base<1026, false, false>", metadata !124, i32 2341, i64 1026, i64 64, i32 0, i32 0, null, metadata !914, i32 0, null, metadata !671} ; [ DW_TAG_class_field_type ]
!914 = metadata !{metadata !915}
!915 = metadata !{i32 786438, null, metadata !"ssdm_int<2 + 1024 * 1, false>", metadata !128, i32 4, i64 1026, i64 64, i32 0, i32 0, null, metadata !916, i32 0, null, metadata !435} ; [ DW_TAG_class_field_type ]
!916 = metadata !{metadata !424}
!917 = metadata !{i32 790529, metadata !918, metadata !"Y.V", null, i32 13, metadata !911, i32 0, i32 0} ; [ DW_TAG_auto_variable_field ]
!918 = metadata !{i32 786688, metadata !113, metadata !"Y", metadata !115, i32 13, metadata !802, i32 0, i32 0} ; [ DW_TAG_auto_variable ]
!919 = metadata !{i32 790529, metadata !920, metadata !"M.V", null, i32 13, metadata !911, i32 0, i32 0} ; [ DW_TAG_auto_variable_field ]
!920 = metadata !{i32 786688, metadata !113, metadata !"M", metadata !115, i32 13, metadata !802, i32 0, i32 0} ; [ DW_TAG_auto_variable ]
!921 = metadata !{i32 16, i32 7, metadata !922, null}
!922 = metadata !{i32 786443, metadata !113, i32 16, i32 2, metadata !115, i32 1} ; [ DW_TAG_lexical_block ]
!923 = metadata !{i32 16, i32 20, metadata !922, null}
!924 = metadata !{i32 786689, metadata !925, metadata !"i", metadata !124, i32 33557101, metadata !140, i32 0, i32 0} ; [ DW_TAG_arg_variable ]
!925 = metadata !{i32 786478, i32 0, null, metadata !"test", metadata !"test", metadata !"_ZNK11ap_int_baseILi1026ELb0ELb0EE4testEi", metadata !124, i32 2669, metadata !593, i1 false, i1 true, i32 0, i32 0, null, i32 256, i1 false, null, null, metadata !592, metadata !136, i32 2669} ; [ DW_TAG_subprogram ]
!926 = metadata !{i32 2669, i32 58, metadata !925, metadata !927}
!927 = metadata !{i32 19, i32 7, metadata !928, null}
!928 = metadata !{i32 786443, metadata !922, i32 17, i32 2, metadata !115, i32 2} ; [ DW_TAG_lexical_block ]
!929 = metadata !{i32 786688, metadata !930, metadata !"__Val2__", metadata !124, i32 2671, metadata !425, i32 0, i32 0} ; [ DW_TAG_auto_variable ]
!930 = metadata !{i32 786443, metadata !931, i32 2671, i32 17, metadata !124, i32 23} ; [ DW_TAG_lexical_block ]
!931 = metadata !{i32 786443, metadata !925, i32 2669, i32 67, metadata !124, i32 22} ; [ DW_TAG_lexical_block ]
!932 = metadata !{i32 2671, i32 163, metadata !930, metadata !927}
!933 = metadata !{i32 2671, i32 165, metadata !930, metadata !927}
!934 = metadata !{i32 2763, i32 147, metadata !935, metadata !1556}
!935 = metadata !{i32 786443, metadata !936, i32 2763, i32 143, metadata !124, i32 23} ; [ DW_TAG_lexical_block ]
!936 = metadata !{i32 786478, i32 0, null, metadata !"operator+=<1026, false>", metadata !"operator+=<1026, false>", metadata !"_ZN11ap_int_baseILi1026ELb0ELb0EEpLILi1026ELb0EEERS0_RKS_IXT_EXT0_EXleT_Li64EEE", metadata !124, i32 2763, metadata !937, i1 false, i1 true, i32 0, i32 0, null, i32 256, i1 false, null, metadata !446, metadata !1403, metadata !136, i32 2763} ; [ DW_TAG_subprogram ]
!937 = metadata !{i32 786453, i32 0, metadata !"", i32 0, i32 0, i64 0, i64 0, i64 0, i32 0, null, metadata !938, i32 0, i32 0} ; [ DW_TAG_subroutine_type ]
!938 = metadata !{metadata !939, metadata !953, metadata !957}
!939 = metadata !{i32 786448, null, null, null, i32 0, i64 0, i64 0, i64 0, i32 0, metadata !940} ; [ DW_TAG_reference_type ]
!940 = metadata !{i32 786434, null, metadata !"ap_int_base<1026, false, false>", metadata !124, i32 2341, i64 1088, i64 64, i32 0, i32 0, null, metadata !941, i32 0, null, metadata !671} ; [ DW_TAG_class_type ]
!941 = metadata !{metadata !942, metadata !950, metadata !954, metadata !959, metadata !965, metadata !968, metadata !971, metadata !974, metadata !977, metadata !980, metadata !983, metadata !986, metadata !989, metadata !992, metadata !995, metadata !998, metadata !1001, metadata !1004, metadata !1007, metadata !1010, metadata !1014, metadata !1017, metadata !1020, metadata !1021, metadata !1024, metadata !1025, metadata !1028, metadata !1031, metadata !1034, metadata !1037, metadata !1040, metadata !1043, metadata !1046, metadata !1049, metadata !1052, metadata !1055, metadata !1060, metadata !1063, metadata !1064, metadata !1065, metadata !1066, metadata !1067, metadata !1070, metadata !1073, metadata !1076, metadata !1079, metadata !1082, metadata !1085, metadata !1088, metadata !1089, metadata !1093, metadata !1096, metadata !1097, metadata !1098, metadata !1099, metadata !1100, metadata !1101, metadata !1104, metadata !1105, metadata !1108, metadata !1109, metadata !1110, metadata !1111, metadata !1112, metadata !1113, metadata !1116, metadata !1403, metadata !1404, metadata !1405, metadata !1406, metadata !1407, metadata !1410, metadata !1411, metadata !1414, metadata !1419, metadata !1420, metadata !1423, metadata !1485, metadata !1486, metadata !1489, metadata !1490, metadata !1529, metadata !1530, metadata !1531, metadata !1532, metadata !1535, metadata !1536, metadata !1537, metadata !1538, metadata !1539, metadata !1540, metadata !1541, metadata !1542, metadata !1543, metadata !1544, metadata !1545, metadata !1546, metadata !1549, metadata !1552, metadata !1555}
!942 = metadata !{i32 786460, metadata !940, null, metadata !124, i32 0, i64 0, i64 0, i64 0, i32 0, metadata !943} ; [ DW_TAG_inheritance ]
!943 = metadata !{i32 786434, null, metadata !"ssdm_int<2 + 1024 * 1, false>", metadata !128, i32 4, i64 1088, i64 64, i32 0, i32 0, null, metadata !944, i32 0, null, metadata !435} ; [ DW_TAG_class_type ]
!944 = metadata !{metadata !945, metadata !946}
!945 = metadata !{i32 786445, metadata !943, metadata !"V", metadata !128, i32 4, i64 1026, i64 64, i64 0, i32 0, metadata !425} ; [ DW_TAG_member ]
!946 = metadata !{i32 786478, i32 0, metadata !943, metadata !"ssdm_int", metadata !"ssdm_int", metadata !"", metadata !128, i32 4, metadata !947, i1 false, i1 false, i32 0, i32 0, null, i32 256, i1 false, null, null, i32 0, metadata !136, i32 4} ; [ DW_TAG_subprogram ]
!947 = metadata !{i32 786453, i32 0, metadata !"", i32 0, i32 0, i64 0, i64 0, i64 0, i32 0, null, metadata !948, i32 0, i32 0} ; [ DW_TAG_subroutine_type ]
!948 = metadata !{null, metadata !949}
!949 = metadata !{i32 786447, i32 0, metadata !"", i32 0, i32 0, i64 64, i64 64, i64 0, i32 64, metadata !943} ; [ DW_TAG_pointer_type ]
!950 = metadata !{i32 786478, i32 0, metadata !940, metadata !"ap_int_base", metadata !"ap_int_base", metadata !"", metadata !124, i32 2379, metadata !951, i1 false, i1 false, i32 0, i32 0, null, i32 256, i1 false, null, null, i32 0, metadata !136, i32 2379} ; [ DW_TAG_subprogram ]
!951 = metadata !{i32 786453, i32 0, metadata !"", i32 0, i32 0, i64 0, i64 0, i64 0, i32 0, null, metadata !952, i32 0, i32 0} ; [ DW_TAG_subroutine_type ]
!952 = metadata !{null, metadata !953}
!953 = metadata !{i32 786447, i32 0, metadata !"", i32 0, i32 0, i64 64, i64 64, i64 0, i32 64, metadata !940} ; [ DW_TAG_pointer_type ]
!954 = metadata !{i32 786478, i32 0, metadata !940, metadata !"ap_int_base<1026, false>", metadata !"ap_int_base<1026, false>", metadata !"", metadata !124, i32 2391, metadata !955, i1 false, i1 false, i32 0, i32 0, null, i32 256, i1 false, null, metadata !446, i32 0, metadata !136, i32 2391} ; [ DW_TAG_subprogram ]
!955 = metadata !{i32 786453, i32 0, metadata !"", i32 0, i32 0, i64 0, i64 0, i64 0, i32 0, null, metadata !956, i32 0, i32 0} ; [ DW_TAG_subroutine_type ]
!956 = metadata !{null, metadata !953, metadata !957}
!957 = metadata !{i32 786448, null, null, null, i32 0, i64 0, i64 0, i64 0, i32 0, metadata !958} ; [ DW_TAG_reference_type ]
!958 = metadata !{i32 786470, null, metadata !"", null, i32 0, i64 0, i64 0, i64 0, i32 0, metadata !940} ; [ DW_TAG_const_type ]
!959 = metadata !{i32 786478, i32 0, metadata !940, metadata !"ap_int_base<1026, false>", metadata !"ap_int_base<1026, false>", metadata !"", metadata !124, i32 2394, metadata !960, i1 false, i1 false, i32 0, i32 0, null, i32 256, i1 false, null, metadata !446, i32 0, metadata !136, i32 2394} ; [ DW_TAG_subprogram ]
!960 = metadata !{i32 786453, i32 0, metadata !"", i32 0, i32 0, i64 0, i64 0, i64 0, i32 0, null, metadata !961, i32 0, i32 0} ; [ DW_TAG_subroutine_type ]
!961 = metadata !{null, metadata !953, metadata !962}
!962 = metadata !{i32 786448, null, null, null, i32 0, i64 0, i64 0, i64 0, i32 0, metadata !963} ; [ DW_TAG_reference_type ]
!963 = metadata !{i32 786470, null, metadata !"", null, i32 0, i64 0, i64 0, i64 0, i32 0, metadata !964} ; [ DW_TAG_const_type ]
!964 = metadata !{i32 786485, null, metadata !"", null, i32 0, i64 0, i64 0, i64 0, i32 0, metadata !940} ; [ DW_TAG_volatile_type ]
!965 = metadata !{i32 786478, i32 0, metadata !940, metadata !"ap_int_base", metadata !"ap_int_base", metadata !"", metadata !124, i32 2401, metadata !966, i1 false, i1 false, i32 0, i32 0, null, i32 384, i1 false, null, null, i32 0, metadata !136, i32 2401} ; [ DW_TAG_subprogram ]
!966 = metadata !{i32 786453, i32 0, metadata !"", i32 0, i32 0, i64 0, i64 0, i64 0, i32 0, null, metadata !967, i32 0, i32 0} ; [ DW_TAG_subroutine_type ]
!967 = metadata !{null, metadata !953, metadata !142}
!968 = metadata !{i32 786478, i32 0, metadata !940, metadata !"ap_int_base", metadata !"ap_int_base", metadata !"", metadata !124, i32 2402, metadata !969, i1 false, i1 false, i32 0, i32 0, null, i32 384, i1 false, null, null, i32 0, metadata !136, i32 2402} ; [ DW_TAG_subprogram ]
!969 = metadata !{i32 786453, i32 0, metadata !"", i32 0, i32 0, i64 0, i64 0, i64 0, i32 0, null, metadata !970, i32 0, i32 0} ; [ DW_TAG_subroutine_type ]
!970 = metadata !{null, metadata !953, metadata !167}
!971 = metadata !{i32 786478, i32 0, metadata !940, metadata !"ap_int_base", metadata !"ap_int_base", metadata !"", metadata !124, i32 2403, metadata !972, i1 false, i1 false, i32 0, i32 0, null, i32 384, i1 false, null, null, i32 0, metadata !136, i32 2403} ; [ DW_TAG_subprogram ]
!972 = metadata !{i32 786453, i32 0, metadata !"", i32 0, i32 0, i64 0, i64 0, i64 0, i32 0, null, metadata !973, i32 0, i32 0} ; [ DW_TAG_subroutine_type ]
!973 = metadata !{null, metadata !953, metadata !171}
!974 = metadata !{i32 786478, i32 0, metadata !940, metadata !"ap_int_base", metadata !"ap_int_base", metadata !"", metadata !124, i32 2404, metadata !975, i1 false, i1 false, i32 0, i32 0, null, i32 384, i1 false, null, null, i32 0, metadata !136, i32 2404} ; [ DW_TAG_subprogram ]
!975 = metadata !{i32 786453, i32 0, metadata !"", i32 0, i32 0, i64 0, i64 0, i64 0, i32 0, null, metadata !976, i32 0, i32 0} ; [ DW_TAG_subroutine_type ]
!976 = metadata !{null, metadata !953, metadata !175}
!977 = metadata !{i32 786478, i32 0, metadata !940, metadata !"ap_int_base", metadata !"ap_int_base", metadata !"", metadata !124, i32 2405, metadata !978, i1 false, i1 false, i32 0, i32 0, null, i32 384, i1 false, null, null, i32 0, metadata !136, i32 2405} ; [ DW_TAG_subprogram ]
!978 = metadata !{i32 786453, i32 0, metadata !"", i32 0, i32 0, i64 0, i64 0, i64 0, i32 0, null, metadata !979, i32 0, i32 0} ; [ DW_TAG_subroutine_type ]
!979 = metadata !{null, metadata !953, metadata !179}
!980 = metadata !{i32 786478, i32 0, metadata !940, metadata !"ap_int_base", metadata !"ap_int_base", metadata !"", metadata !124, i32 2406, metadata !981, i1 false, i1 false, i32 0, i32 0, null, i32 384, i1 false, null, null, i32 0, metadata !136, i32 2406} ; [ DW_TAG_subprogram ]
!981 = metadata !{i32 786453, i32 0, metadata !"", i32 0, i32 0, i64 0, i64 0, i64 0, i32 0, null, metadata !982, i32 0, i32 0} ; [ DW_TAG_subroutine_type ]
!982 = metadata !{null, metadata !953, metadata !140}
!983 = metadata !{i32 786478, i32 0, metadata !940, metadata !"ap_int_base", metadata !"ap_int_base", metadata !"", metadata !124, i32 2407, metadata !984, i1 false, i1 false, i32 0, i32 0, null, i32 384, i1 false, null, null, i32 0, metadata !136, i32 2407} ; [ DW_TAG_subprogram ]
!984 = metadata !{i32 786453, i32 0, metadata !"", i32 0, i32 0, i64 0, i64 0, i64 0, i32 0, null, metadata !985, i32 0, i32 0} ; [ DW_TAG_subroutine_type ]
!985 = metadata !{null, metadata !953, metadata !186}
!986 = metadata !{i32 786478, i32 0, metadata !940, metadata !"ap_int_base", metadata !"ap_int_base", metadata !"", metadata !124, i32 2408, metadata !987, i1 false, i1 false, i32 0, i32 0, null, i32 384, i1 false, null, null, i32 0, metadata !136, i32 2408} ; [ DW_TAG_subprogram ]
!987 = metadata !{i32 786453, i32 0, metadata !"", i32 0, i32 0, i64 0, i64 0, i64 0, i32 0, null, metadata !988, i32 0, i32 0} ; [ DW_TAG_subroutine_type ]
!988 = metadata !{null, metadata !953, metadata !190}
!989 = metadata !{i32 786478, i32 0, metadata !940, metadata !"ap_int_base", metadata !"ap_int_base", metadata !"", metadata !124, i32 2409, metadata !990, i1 false, i1 false, i32 0, i32 0, null, i32 384, i1 false, null, null, i32 0, metadata !136, i32 2409} ; [ DW_TAG_subprogram ]
!990 = metadata !{i32 786453, i32 0, metadata !"", i32 0, i32 0, i64 0, i64 0, i64 0, i32 0, null, metadata !991, i32 0, i32 0} ; [ DW_TAG_subroutine_type ]
!991 = metadata !{null, metadata !953, metadata !194}
!992 = metadata !{i32 786478, i32 0, metadata !940, metadata !"ap_int_base", metadata !"ap_int_base", metadata !"", metadata !124, i32 2410, metadata !993, i1 false, i1 false, i32 0, i32 0, null, i32 384, i1 false, null, null, i32 0, metadata !136, i32 2410} ; [ DW_TAG_subprogram ]
!993 = metadata !{i32 786453, i32 0, metadata !"", i32 0, i32 0, i64 0, i64 0, i64 0, i32 0, null, metadata !994, i32 0, i32 0} ; [ DW_TAG_subroutine_type ]
!994 = metadata !{null, metadata !953, metadata !198}
!995 = metadata !{i32 786478, i32 0, metadata !940, metadata !"ap_int_base", metadata !"ap_int_base", metadata !"", metadata !124, i32 2411, metadata !996, i1 false, i1 false, i32 0, i32 0, null, i32 384, i1 false, null, null, i32 0, metadata !136, i32 2411} ; [ DW_TAG_subprogram ]
!996 = metadata !{i32 786453, i32 0, metadata !"", i32 0, i32 0, i64 0, i64 0, i64 0, i32 0, null, metadata !997, i32 0, i32 0} ; [ DW_TAG_subroutine_type ]
!997 = metadata !{null, metadata !953, metadata !203}
!998 = metadata !{i32 786478, i32 0, metadata !940, metadata !"ap_int_base", metadata !"ap_int_base", metadata !"", metadata !124, i32 2412, metadata !999, i1 false, i1 false, i32 0, i32 0, null, i32 384, i1 false, null, null, i32 0, metadata !136, i32 2412} ; [ DW_TAG_subprogram ]
!999 = metadata !{i32 786453, i32 0, metadata !"", i32 0, i32 0, i64 0, i64 0, i64 0, i32 0, null, metadata !1000, i32 0, i32 0} ; [ DW_TAG_subroutine_type ]
!1000 = metadata !{null, metadata !953, metadata !208}
!1001 = metadata !{i32 786478, i32 0, metadata !940, metadata !"ap_int_base", metadata !"ap_int_base", metadata !"", metadata !124, i32 2413, metadata !1002, i1 false, i1 false, i32 0, i32 0, null, i32 384, i1 false, null, null, i32 0, metadata !136, i32 2413} ; [ DW_TAG_subprogram ]
!1002 = metadata !{i32 786453, i32 0, metadata !"", i32 0, i32 0, i64 0, i64 0, i64 0, i32 0, null, metadata !1003, i32 0, i32 0} ; [ DW_TAG_subroutine_type ]
!1003 = metadata !{null, metadata !953, metadata !212}
!1004 = metadata !{i32 786478, i32 0, metadata !940, metadata !"ap_int_base", metadata !"ap_int_base", metadata !"", metadata !124, i32 2440, metadata !1005, i1 false, i1 false, i32 0, i32 0, null, i32 256, i1 false, null, null, i32 0, metadata !136, i32 2440} ; [ DW_TAG_subprogram ]
!1005 = metadata !{i32 786453, i32 0, metadata !"", i32 0, i32 0, i64 0, i64 0, i64 0, i32 0, null, metadata !1006, i32 0, i32 0} ; [ DW_TAG_subroutine_type ]
!1006 = metadata !{null, metadata !953, metadata !216}
!1007 = metadata !{i32 786478, i32 0, metadata !940, metadata !"ap_int_base", metadata !"ap_int_base", metadata !"", metadata !124, i32 2447, metadata !1008, i1 false, i1 false, i32 0, i32 0, null, i32 256, i1 false, null, null, i32 0, metadata !136, i32 2447} ; [ DW_TAG_subprogram ]
!1008 = metadata !{i32 786453, i32 0, metadata !"", i32 0, i32 0, i64 0, i64 0, i64 0, i32 0, null, metadata !1009, i32 0, i32 0} ; [ DW_TAG_subroutine_type ]
!1009 = metadata !{null, metadata !953, metadata !216, metadata !167}
!1010 = metadata !{i32 786478, i32 0, metadata !940, metadata !"read", metadata !"read", metadata !"_ZNV11ap_int_baseILi1026ELb0ELb0EE4readEv", metadata !124, i32 2468, metadata !1011, i1 false, i1 false, i32 0, i32 0, null, i32 256, i1 false, null, null, i32 0, metadata !136, i32 2468} ; [ DW_TAG_subprogram ]
!1011 = metadata !{i32 786453, i32 0, metadata !"", i32 0, i32 0, i64 0, i64 0, i64 0, i32 0, null, metadata !1012, i32 0, i32 0} ; [ DW_TAG_subroutine_type ]
!1012 = metadata !{metadata !940, metadata !1013}
!1013 = metadata !{i32 786447, i32 0, metadata !"", i32 0, i32 0, i64 64, i64 64, i64 0, i32 64, metadata !964} ; [ DW_TAG_pointer_type ]
!1014 = metadata !{i32 786478, i32 0, metadata !940, metadata !"write", metadata !"write", metadata !"_ZNV11ap_int_baseILi1026ELb0ELb0EE5writeERKS0_", metadata !124, i32 2474, metadata !1015, i1 false, i1 false, i32 0, i32 0, null, i32 256, i1 false, null, null, i32 0, metadata !136, i32 2474} ; [ DW_TAG_subprogram ]
!1015 = metadata !{i32 786453, i32 0, metadata !"", i32 0, i32 0, i64 0, i64 0, i64 0, i32 0, null, metadata !1016, i32 0, i32 0} ; [ DW_TAG_subroutine_type ]
!1016 = metadata !{null, metadata !1013, metadata !957}
!1017 = metadata !{i32 786478, i32 0, metadata !940, metadata !"operator=", metadata !"operator=", metadata !"_ZNV11ap_int_baseILi1026ELb0ELb0EEaSERVKS0_", metadata !124, i32 2486, metadata !1018, i1 false, i1 false, i32 0, i32 0, null, i32 256, i1 false, null, null, i32 0, metadata !136, i32 2486} ; [ DW_TAG_subprogram ]
!1018 = metadata !{i32 786453, i32 0, metadata !"", i32 0, i32 0, i64 0, i64 0, i64 0, i32 0, null, metadata !1019, i32 0, i32 0} ; [ DW_TAG_subroutine_type ]
!1019 = metadata !{null, metadata !1013, metadata !962}
!1020 = metadata !{i32 786478, i32 0, metadata !940, metadata !"operator=", metadata !"operator=", metadata !"_ZNV11ap_int_baseILi1026ELb0ELb0EEaSERKS0_", metadata !124, i32 2495, metadata !1015, i1 false, i1 false, i32 0, i32 0, null, i32 256, i1 false, null, null, i32 0, metadata !136, i32 2495} ; [ DW_TAG_subprogram ]
!1021 = metadata !{i32 786478, i32 0, metadata !940, metadata !"operator=", metadata !"operator=", metadata !"_ZN11ap_int_baseILi1026ELb0ELb0EEaSERVKS0_", metadata !124, i32 2518, metadata !1022, i1 false, i1 false, i32 0, i32 0, null, i32 256, i1 false, null, null, i32 0, metadata !136, i32 2518} ; [ DW_TAG_subprogram ]
!1022 = metadata !{i32 786453, i32 0, metadata !"", i32 0, i32 0, i64 0, i64 0, i64 0, i32 0, null, metadata !1023, i32 0, i32 0} ; [ DW_TAG_subroutine_type ]
!1023 = metadata !{metadata !939, metadata !953, metadata !962}
!1024 = metadata !{i32 786478, i32 0, metadata !940, metadata !"operator=", metadata !"operator=", metadata !"_ZN11ap_int_baseILi1026ELb0ELb0EEaSERKS0_", metadata !124, i32 2523, metadata !937, i1 false, i1 false, i32 0, i32 0, null, i32 256, i1 false, null, null, i32 0, metadata !136, i32 2523} ; [ DW_TAG_subprogram ]
!1025 = metadata !{i32 786478, i32 0, metadata !940, metadata !"operator=", metadata !"operator=", metadata !"_ZN11ap_int_baseILi1026ELb0ELb0EEaSEPKc", metadata !124, i32 2527, metadata !1026, i1 false, i1 false, i32 0, i32 0, null, i32 256, i1 false, null, null, i32 0, metadata !136, i32 2527} ; [ DW_TAG_subprogram ]
!1026 = metadata !{i32 786453, i32 0, metadata !"", i32 0, i32 0, i64 0, i64 0, i64 0, i32 0, null, metadata !1027, i32 0, i32 0} ; [ DW_TAG_subroutine_type ]
!1027 = metadata !{metadata !939, metadata !953, metadata !216}
!1028 = metadata !{i32 786478, i32 0, metadata !940, metadata !"set", metadata !"set", metadata !"_ZN11ap_int_baseILi1026ELb0ELb0EE3setEPKca", metadata !124, i32 2535, metadata !1029, i1 false, i1 false, i32 0, i32 0, null, i32 256, i1 false, null, null, i32 0, metadata !136, i32 2535} ; [ DW_TAG_subprogram ]
!1029 = metadata !{i32 786453, i32 0, metadata !"", i32 0, i32 0, i64 0, i64 0, i64 0, i32 0, null, metadata !1030, i32 0, i32 0} ; [ DW_TAG_subroutine_type ]
!1030 = metadata !{metadata !939, metadata !953, metadata !216, metadata !167}
!1031 = metadata !{i32 786478, i32 0, metadata !940, metadata !"operator=", metadata !"operator=", metadata !"_ZN11ap_int_baseILi1026ELb0ELb0EEaSEc", metadata !124, i32 2549, metadata !1032, i1 false, i1 false, i32 0, i32 0, null, i32 256, i1 false, null, null, i32 0, metadata !136, i32 2549} ; [ DW_TAG_subprogram ]
!1032 = metadata !{i32 786453, i32 0, metadata !"", i32 0, i32 0, i64 0, i64 0, i64 0, i32 0, null, metadata !1033, i32 0, i32 0} ; [ DW_TAG_subroutine_type ]
!1033 = metadata !{metadata !939, metadata !953, metadata !218}
!1034 = metadata !{i32 786478, i32 0, metadata !940, metadata !"operator=", metadata !"operator=", metadata !"_ZN11ap_int_baseILi1026ELb0ELb0EEaSEh", metadata !124, i32 2550, metadata !1035, i1 false, i1 false, i32 0, i32 0, null, i32 256, i1 false, null, null, i32 0, metadata !136, i32 2550} ; [ DW_TAG_subprogram ]
!1035 = metadata !{i32 786453, i32 0, metadata !"", i32 0, i32 0, i64 0, i64 0, i64 0, i32 0, null, metadata !1036, i32 0, i32 0} ; [ DW_TAG_subroutine_type ]
!1036 = metadata !{metadata !939, metadata !953, metadata !171}
!1037 = metadata !{i32 786478, i32 0, metadata !940, metadata !"operator=", metadata !"operator=", metadata !"_ZN11ap_int_baseILi1026ELb0ELb0EEaSEs", metadata !124, i32 2551, metadata !1038, i1 false, i1 false, i32 0, i32 0, null, i32 256, i1 false, null, null, i32 0, metadata !136, i32 2551} ; [ DW_TAG_subprogram ]
!1038 = metadata !{i32 786453, i32 0, metadata !"", i32 0, i32 0, i64 0, i64 0, i64 0, i32 0, null, metadata !1039, i32 0, i32 0} ; [ DW_TAG_subroutine_type ]
!1039 = metadata !{metadata !939, metadata !953, metadata !175}
!1040 = metadata !{i32 786478, i32 0, metadata !940, metadata !"operator=", metadata !"operator=", metadata !"_ZN11ap_int_baseILi1026ELb0ELb0EEaSEt", metadata !124, i32 2552, metadata !1041, i1 false, i1 false, i32 0, i32 0, null, i32 256, i1 false, null, null, i32 0, metadata !136, i32 2552} ; [ DW_TAG_subprogram ]
!1041 = metadata !{i32 786453, i32 0, metadata !"", i32 0, i32 0, i64 0, i64 0, i64 0, i32 0, null, metadata !1042, i32 0, i32 0} ; [ DW_TAG_subroutine_type ]
!1042 = metadata !{metadata !939, metadata !953, metadata !179}
!1043 = metadata !{i32 786478, i32 0, metadata !940, metadata !"operator=", metadata !"operator=", metadata !"_ZN11ap_int_baseILi1026ELb0ELb0EEaSEi", metadata !124, i32 2553, metadata !1044, i1 false, i1 false, i32 0, i32 0, null, i32 256, i1 false, null, null, i32 0, metadata !136, i32 2553} ; [ DW_TAG_subprogram ]
!1044 = metadata !{i32 786453, i32 0, metadata !"", i32 0, i32 0, i64 0, i64 0, i64 0, i32 0, null, metadata !1045, i32 0, i32 0} ; [ DW_TAG_subroutine_type ]
!1045 = metadata !{metadata !939, metadata !953, metadata !140}
!1046 = metadata !{i32 786478, i32 0, metadata !940, metadata !"operator=", metadata !"operator=", metadata !"_ZN11ap_int_baseILi1026ELb0ELb0EEaSEj", metadata !124, i32 2554, metadata !1047, i1 false, i1 false, i32 0, i32 0, null, i32 256, i1 false, null, null, i32 0, metadata !136, i32 2554} ; [ DW_TAG_subprogram ]
!1047 = metadata !{i32 786453, i32 0, metadata !"", i32 0, i32 0, i64 0, i64 0, i64 0, i32 0, null, metadata !1048, i32 0, i32 0} ; [ DW_TAG_subroutine_type ]
!1048 = metadata !{metadata !939, metadata !953, metadata !186}
!1049 = metadata !{i32 786478, i32 0, metadata !940, metadata !"operator=", metadata !"operator=", metadata !"_ZN11ap_int_baseILi1026ELb0ELb0EEaSEx", metadata !124, i32 2555, metadata !1050, i1 false, i1 false, i32 0, i32 0, null, i32 256, i1 false, null, null, i32 0, metadata !136, i32 2555} ; [ DW_TAG_subprogram ]
!1050 = metadata !{i32 786453, i32 0, metadata !"", i32 0, i32 0, i64 0, i64 0, i64 0, i32 0, null, metadata !1051, i32 0, i32 0} ; [ DW_TAG_subroutine_type ]
!1051 = metadata !{metadata !939, metadata !953, metadata !198}
!1052 = metadata !{i32 786478, i32 0, metadata !940, metadata !"operator=", metadata !"operator=", metadata !"_ZN11ap_int_baseILi1026ELb0ELb0EEaSEy", metadata !124, i32 2556, metadata !1053, i1 false, i1 false, i32 0, i32 0, null, i32 256, i1 false, null, null, i32 0, metadata !136, i32 2556} ; [ DW_TAG_subprogram ]
!1053 = metadata !{i32 786453, i32 0, metadata !"", i32 0, i32 0, i64 0, i64 0, i64 0, i32 0, null, metadata !1054, i32 0, i32 0} ; [ DW_TAG_subroutine_type ]
!1054 = metadata !{metadata !939, metadata !953, metadata !203}
!1055 = metadata !{i32 786478, i32 0, metadata !940, metadata !"operator unsigned long long", metadata !"operator unsigned long long", metadata !"_ZNK11ap_int_baseILi1026ELb0ELb0EEcvyEv", metadata !124, i32 2595, metadata !1056, i1 false, i1 false, i32 0, i32 0, null, i32 256, i1 false, null, null, i32 0, metadata !136, i32 2595} ; [ DW_TAG_subprogram ]
!1056 = metadata !{i32 786453, i32 0, metadata !"", i32 0, i32 0, i64 0, i64 0, i64 0, i32 0, null, metadata !1057, i32 0, i32 0} ; [ DW_TAG_subroutine_type ]
!1057 = metadata !{metadata !1058, metadata !1059}
!1058 = metadata !{i32 786454, metadata !940, metadata !"RetType", metadata !124, i32 2345, i64 0, i64 0, i64 0, i32 0, metadata !274} ; [ DW_TAG_typedef ]
!1059 = metadata !{i32 786447, i32 0, metadata !"", i32 0, i32 0, i64 64, i64 64, i64 0, i32 64, metadata !958} ; [ DW_TAG_pointer_type ]
!1060 = metadata !{i32 786478, i32 0, metadata !940, metadata !"to_bool", metadata !"to_bool", metadata !"_ZNK11ap_int_baseILi1026ELb0ELb0EE7to_boolEv", metadata !124, i32 2601, metadata !1061, i1 false, i1 false, i32 0, i32 0, null, i32 256, i1 false, null, null, i32 0, metadata !136, i32 2601} ; [ DW_TAG_subprogram ]
!1061 = metadata !{i32 786453, i32 0, metadata !"", i32 0, i32 0, i64 0, i64 0, i64 0, i32 0, null, metadata !1062, i32 0, i32 0} ; [ DW_TAG_subroutine_type ]
!1062 = metadata !{metadata !142, metadata !1059}
!1063 = metadata !{i32 786478, i32 0, metadata !940, metadata !"to_uchar", metadata !"to_uchar", metadata !"_ZNK11ap_int_baseILi1026ELb0ELb0EE8to_ucharEv", metadata !124, i32 2602, metadata !1061, i1 false, i1 false, i32 0, i32 0, null, i32 256, i1 false, null, null, i32 0, metadata !136, i32 2602} ; [ DW_TAG_subprogram ]
!1064 = metadata !{i32 786478, i32 0, metadata !940, metadata !"to_char", metadata !"to_char", metadata !"_ZNK11ap_int_baseILi1026ELb0ELb0EE7to_charEv", metadata !124, i32 2603, metadata !1061, i1 false, i1 false, i32 0, i32 0, null, i32 256, i1 false, null, null, i32 0, metadata !136, i32 2603} ; [ DW_TAG_subprogram ]
!1065 = metadata !{i32 786478, i32 0, metadata !940, metadata !"to_ushort", metadata !"to_ushort", metadata !"_ZNK11ap_int_baseILi1026ELb0ELb0EE9to_ushortEv", metadata !124, i32 2604, metadata !1061, i1 false, i1 false, i32 0, i32 0, null, i32 256, i1 false, null, null, i32 0, metadata !136, i32 2604} ; [ DW_TAG_subprogram ]
!1066 = metadata !{i32 786478, i32 0, metadata !940, metadata !"to_short", metadata !"to_short", metadata !"_ZNK11ap_int_baseILi1026ELb0ELb0EE8to_shortEv", metadata !124, i32 2605, metadata !1061, i1 false, i1 false, i32 0, i32 0, null, i32 256, i1 false, null, null, i32 0, metadata !136, i32 2605} ; [ DW_TAG_subprogram ]
!1067 = metadata !{i32 786478, i32 0, metadata !940, metadata !"to_int", metadata !"to_int", metadata !"_ZNK11ap_int_baseILi1026ELb0ELb0EE6to_intEv", metadata !124, i32 2606, metadata !1068, i1 false, i1 false, i32 0, i32 0, null, i32 256, i1 false, null, null, i32 0, metadata !136, i32 2606} ; [ DW_TAG_subprogram ]
!1068 = metadata !{i32 786453, i32 0, metadata !"", i32 0, i32 0, i64 0, i64 0, i64 0, i32 0, null, metadata !1069, i32 0, i32 0} ; [ DW_TAG_subroutine_type ]
!1069 = metadata !{metadata !140, metadata !1059}
!1070 = metadata !{i32 786478, i32 0, metadata !940, metadata !"to_uint", metadata !"to_uint", metadata !"_ZNK11ap_int_baseILi1026ELb0ELb0EE7to_uintEv", metadata !124, i32 2607, metadata !1071, i1 false, i1 false, i32 0, i32 0, null, i32 256, i1 false, null, null, i32 0, metadata !136, i32 2607} ; [ DW_TAG_subprogram ]
!1071 = metadata !{i32 786453, i32 0, metadata !"", i32 0, i32 0, i64 0, i64 0, i64 0, i32 0, null, metadata !1072, i32 0, i32 0} ; [ DW_TAG_subroutine_type ]
!1072 = metadata !{metadata !186, metadata !1059}
!1073 = metadata !{i32 786478, i32 0, metadata !940, metadata !"to_long", metadata !"to_long", metadata !"_ZNK11ap_int_baseILi1026ELb0ELb0EE7to_longEv", metadata !124, i32 2608, metadata !1074, i1 false, i1 false, i32 0, i32 0, null, i32 256, i1 false, null, null, i32 0, metadata !136, i32 2608} ; [ DW_TAG_subprogram ]
!1074 = metadata !{i32 786453, i32 0, metadata !"", i32 0, i32 0, i64 0, i64 0, i64 0, i32 0, null, metadata !1075, i32 0, i32 0} ; [ DW_TAG_subroutine_type ]
!1075 = metadata !{metadata !190, metadata !1059}
!1076 = metadata !{i32 786478, i32 0, metadata !940, metadata !"to_ulong", metadata !"to_ulong", metadata !"_ZNK11ap_int_baseILi1026ELb0ELb0EE8to_ulongEv", metadata !124, i32 2609, metadata !1077, i1 false, i1 false, i32 0, i32 0, null, i32 256, i1 false, null, null, i32 0, metadata !136, i32 2609} ; [ DW_TAG_subprogram ]
!1077 = metadata !{i32 786453, i32 0, metadata !"", i32 0, i32 0, i64 0, i64 0, i64 0, i32 0, null, metadata !1078, i32 0, i32 0} ; [ DW_TAG_subroutine_type ]
!1078 = metadata !{metadata !194, metadata !1059}
!1079 = metadata !{i32 786478, i32 0, metadata !940, metadata !"to_int64", metadata !"to_int64", metadata !"_ZNK11ap_int_baseILi1026ELb0ELb0EE8to_int64Ev", metadata !124, i32 2610, metadata !1080, i1 false, i1 false, i32 0, i32 0, null, i32 256, i1 false, null, null, i32 0, metadata !136, i32 2610} ; [ DW_TAG_subprogram ]
!1080 = metadata !{i32 786453, i32 0, metadata !"", i32 0, i32 0, i64 0, i64 0, i64 0, i32 0, null, metadata !1081, i32 0, i32 0} ; [ DW_TAG_subroutine_type ]
!1081 = metadata !{metadata !198, metadata !1059}
!1082 = metadata !{i32 786478, i32 0, metadata !940, metadata !"to_uint64", metadata !"to_uint64", metadata !"_ZNK11ap_int_baseILi1026ELb0ELb0EE9to_uint64Ev", metadata !124, i32 2611, metadata !1083, i1 false, i1 false, i32 0, i32 0, null, i32 256, i1 false, null, null, i32 0, metadata !136, i32 2611} ; [ DW_TAG_subprogram ]
!1083 = metadata !{i32 786453, i32 0, metadata !"", i32 0, i32 0, i64 0, i64 0, i64 0, i32 0, null, metadata !1084, i32 0, i32 0} ; [ DW_TAG_subroutine_type ]
!1084 = metadata !{metadata !203, metadata !1059}
!1085 = metadata !{i32 786478, i32 0, metadata !940, metadata !"to_double", metadata !"to_double", metadata !"_ZNK11ap_int_baseILi1026ELb0ELb0EE9to_doubleEv", metadata !124, i32 2612, metadata !1086, i1 false, i1 false, i32 0, i32 0, null, i32 256, i1 false, null, null, i32 0, metadata !136, i32 2612} ; [ DW_TAG_subprogram ]
!1086 = metadata !{i32 786453, i32 0, metadata !"", i32 0, i32 0, i64 0, i64 0, i64 0, i32 0, null, metadata !1087, i32 0, i32 0} ; [ DW_TAG_subroutine_type ]
!1087 = metadata !{metadata !212, metadata !1059}
!1088 = metadata !{i32 786478, i32 0, metadata !940, metadata !"length", metadata !"length", metadata !"_ZNK11ap_int_baseILi1026ELb0ELb0EE6lengthEv", metadata !124, i32 2625, metadata !1068, i1 false, i1 false, i32 0, i32 0, null, i32 256, i1 false, null, null, i32 0, metadata !136, i32 2625} ; [ DW_TAG_subprogram ]
!1089 = metadata !{i32 786478, i32 0, metadata !940, metadata !"length", metadata !"length", metadata !"_ZNVK11ap_int_baseILi1026ELb0ELb0EE6lengthEv", metadata !124, i32 2626, metadata !1090, i1 false, i1 false, i32 0, i32 0, null, i32 256, i1 false, null, null, i32 0, metadata !136, i32 2626} ; [ DW_TAG_subprogram ]
!1090 = metadata !{i32 786453, i32 0, metadata !"", i32 0, i32 0, i64 0, i64 0, i64 0, i32 0, null, metadata !1091, i32 0, i32 0} ; [ DW_TAG_subroutine_type ]
!1091 = metadata !{metadata !140, metadata !1092}
!1092 = metadata !{i32 786447, i32 0, metadata !"", i32 0, i32 0, i64 64, i64 64, i64 0, i32 64, metadata !963} ; [ DW_TAG_pointer_type ]
!1093 = metadata !{i32 786478, i32 0, metadata !940, metadata !"reverse", metadata !"reverse", metadata !"_ZN11ap_int_baseILi1026ELb0ELb0EE7reverseEv", metadata !124, i32 2631, metadata !1094, i1 false, i1 false, i32 0, i32 0, null, i32 256, i1 false, null, null, i32 0, metadata !136, i32 2631} ; [ DW_TAG_subprogram ]
!1094 = metadata !{i32 786453, i32 0, metadata !"", i32 0, i32 0, i64 0, i64 0, i64 0, i32 0, null, metadata !1095, i32 0, i32 0} ; [ DW_TAG_subroutine_type ]
!1095 = metadata !{metadata !939, metadata !953}
!1096 = metadata !{i32 786478, i32 0, metadata !940, metadata !"iszero", metadata !"iszero", metadata !"_ZNK11ap_int_baseILi1026ELb0ELb0EE6iszeroEv", metadata !124, i32 2637, metadata !1061, i1 false, i1 false, i32 0, i32 0, null, i32 256, i1 false, null, null, i32 0, metadata !136, i32 2637} ; [ DW_TAG_subprogram ]
!1097 = metadata !{i32 786478, i32 0, metadata !940, metadata !"is_zero", metadata !"is_zero", metadata !"_ZNK11ap_int_baseILi1026ELb0ELb0EE7is_zeroEv", metadata !124, i32 2642, metadata !1061, i1 false, i1 false, i32 0, i32 0, null, i32 256, i1 false, null, null, i32 0, metadata !136, i32 2642} ; [ DW_TAG_subprogram ]
!1098 = metadata !{i32 786478, i32 0, metadata !940, metadata !"sign", metadata !"sign", metadata !"_ZNK11ap_int_baseILi1026ELb0ELb0EE4signEv", metadata !124, i32 2647, metadata !1061, i1 false, i1 false, i32 0, i32 0, null, i32 256, i1 false, null, null, i32 0, metadata !136, i32 2647} ; [ DW_TAG_subprogram ]
!1099 = metadata !{i32 786478, i32 0, metadata !940, metadata !"clear", metadata !"clear", metadata !"_ZN11ap_int_baseILi1026ELb0ELb0EE5clearEi", metadata !124, i32 2655, metadata !981, i1 false, i1 false, i32 0, i32 0, null, i32 256, i1 false, null, null, i32 0, metadata !136, i32 2655} ; [ DW_TAG_subprogram ]
!1100 = metadata !{i32 786478, i32 0, metadata !940, metadata !"invert", metadata !"invert", metadata !"_ZN11ap_int_baseILi1026ELb0ELb0EE6invertEi", metadata !124, i32 2661, metadata !981, i1 false, i1 false, i32 0, i32 0, null, i32 256, i1 false, null, null, i32 0, metadata !136, i32 2661} ; [ DW_TAG_subprogram ]
!1101 = metadata !{i32 786478, i32 0, metadata !940, metadata !"test", metadata !"test", metadata !"_ZNK11ap_int_baseILi1026ELb0ELb0EE4testEi", metadata !124, i32 2669, metadata !1102, i1 false, i1 false, i32 0, i32 0, null, i32 256, i1 false, null, null, i32 0, metadata !136, i32 2669} ; [ DW_TAG_subprogram ]
!1102 = metadata !{i32 786453, i32 0, metadata !"", i32 0, i32 0, i64 0, i64 0, i64 0, i32 0, null, metadata !1103, i32 0, i32 0} ; [ DW_TAG_subroutine_type ]
!1103 = metadata !{metadata !142, metadata !1059, metadata !140}
!1104 = metadata !{i32 786478, i32 0, metadata !940, metadata !"set", metadata !"set", metadata !"_ZN11ap_int_baseILi1026ELb0ELb0EE3setEi", metadata !124, i32 2675, metadata !981, i1 false, i1 false, i32 0, i32 0, null, i32 256, i1 false, null, null, i32 0, metadata !136, i32 2675} ; [ DW_TAG_subprogram ]
!1105 = metadata !{i32 786478, i32 0, metadata !940, metadata !"set", metadata !"set", metadata !"_ZN11ap_int_baseILi1026ELb0ELb0EE3setEib", metadata !124, i32 2681, metadata !1106, i1 false, i1 false, i32 0, i32 0, null, i32 256, i1 false, null, null, i32 0, metadata !136, i32 2681} ; [ DW_TAG_subprogram ]
!1106 = metadata !{i32 786453, i32 0, metadata !"", i32 0, i32 0, i64 0, i64 0, i64 0, i32 0, null, metadata !1107, i32 0, i32 0} ; [ DW_TAG_subroutine_type ]
!1107 = metadata !{null, metadata !953, metadata !140, metadata !142}
!1108 = metadata !{i32 786478, i32 0, metadata !940, metadata !"lrotate", metadata !"lrotate", metadata !"_ZN11ap_int_baseILi1026ELb0ELb0EE7lrotateEi", metadata !124, i32 2688, metadata !981, i1 false, i1 false, i32 0, i32 0, null, i32 256, i1 false, null, null, i32 0, metadata !136, i32 2688} ; [ DW_TAG_subprogram ]
!1109 = metadata !{i32 786478, i32 0, metadata !940, metadata !"rrotate", metadata !"rrotate", metadata !"_ZN11ap_int_baseILi1026ELb0ELb0EE7rrotateEi", metadata !124, i32 2697, metadata !981, i1 false, i1 false, i32 0, i32 0, null, i32 256, i1 false, null, null, i32 0, metadata !136, i32 2697} ; [ DW_TAG_subprogram ]
!1110 = metadata !{i32 786478, i32 0, metadata !940, metadata !"set_bit", metadata !"set_bit", metadata !"_ZN11ap_int_baseILi1026ELb0ELb0EE7set_bitEib", metadata !124, i32 2705, metadata !1106, i1 false, i1 false, i32 0, i32 0, null, i32 256, i1 false, null, null, i32 0, metadata !136, i32 2705} ; [ DW_TAG_subprogram ]
!1111 = metadata !{i32 786478, i32 0, metadata !940, metadata !"get_bit", metadata !"get_bit", metadata !"_ZNK11ap_int_baseILi1026ELb0ELb0EE7get_bitEi", metadata !124, i32 2710, metadata !1102, i1 false, i1 false, i32 0, i32 0, null, i32 256, i1 false, null, null, i32 0, metadata !136, i32 2710} ; [ DW_TAG_subprogram ]
!1112 = metadata !{i32 786478, i32 0, metadata !940, metadata !"b_not", metadata !"b_not", metadata !"_ZN11ap_int_baseILi1026ELb0ELb0EE5b_notEv", metadata !124, i32 2715, metadata !951, i1 false, i1 false, i32 0, i32 0, null, i32 256, i1 false, null, null, i32 0, metadata !136, i32 2715} ; [ DW_TAG_subprogram ]
!1113 = metadata !{i32 786478, i32 0, metadata !940, metadata !"countLeadingZeros", metadata !"countLeadingZeros", metadata !"_ZN11ap_int_baseILi1026ELb0ELb0EE17countLeadingZerosEv", metadata !124, i32 2722, metadata !1114, i1 false, i1 false, i32 0, i32 0, null, i32 256, i1 false, null, null, i32 0, metadata !136, i32 2722} ; [ DW_TAG_subprogram ]
!1114 = metadata !{i32 786453, i32 0, metadata !"", i32 0, i32 0, i64 0, i64 0, i64 0, i32 0, null, metadata !1115, i32 0, i32 0} ; [ DW_TAG_subroutine_type ]
!1115 = metadata !{metadata !140, metadata !953}
!1116 = metadata !{i32 786478, i32 0, metadata !940, metadata !"operator+=<1025, false>", metadata !"operator+=<1025, false>", metadata !"_ZN11ap_int_baseILi1026ELb0ELb0EEpLILi1025ELb0EEERS0_RKS_IXT_EXT0_EXleT_Li64EEE", metadata !124, i32 2763, metadata !1117, i1 false, i1 false, i32 0, i32 0, null, i32 256, i1 false, null, metadata !1141, i32 0, metadata !136, i32 2763} ; [ DW_TAG_subprogram ]
!1117 = metadata !{i32 786453, i32 0, metadata !"", i32 0, i32 0, i64 0, i64 0, i64 0, i32 0, null, metadata !1118, i32 0, i32 0} ; [ DW_TAG_subroutine_type ]
!1118 = metadata !{metadata !939, metadata !953, metadata !1119}
!1119 = metadata !{i32 786448, null, null, null, i32 0, i64 0, i64 0, i64 0, i32 0, metadata !1120} ; [ DW_TAG_reference_type ]
!1120 = metadata !{i32 786470, null, metadata !"", null, i32 0, i64 0, i64 0, i64 0, i32 0, metadata !1121} ; [ DW_TAG_const_type ]
!1121 = metadata !{i32 786434, null, metadata !"ap_int_base<1025, false, false>", metadata !124, i32 2341, i64 1088, i64 64, i32 0, i32 0, null, metadata !1122, i32 0, null, metadata !1402} ; [ DW_TAG_class_type ]
!1122 = metadata !{metadata !1123, metadata !1134, metadata !1138, metadata !1143, metadata !1149, metadata !1152, metadata !1155, metadata !1158, metadata !1161, metadata !1164, metadata !1167, metadata !1170, metadata !1173, metadata !1176, metadata !1179, metadata !1182, metadata !1185, metadata !1188, metadata !1191, metadata !1194, metadata !1198, metadata !1201, metadata !1204, metadata !1205, metadata !1209, metadata !1212, metadata !1215, metadata !1218, metadata !1221, metadata !1224, metadata !1227, metadata !1230, metadata !1233, metadata !1236, metadata !1239, metadata !1242, metadata !1247, metadata !1250, metadata !1251, metadata !1252, metadata !1253, metadata !1254, metadata !1257, metadata !1260, metadata !1263, metadata !1266, metadata !1269, metadata !1272, metadata !1275, metadata !1276, metadata !1280, metadata !1283, metadata !1284, metadata !1285, metadata !1286, metadata !1287, metadata !1288, metadata !1291, metadata !1292, metadata !1295, metadata !1296, metadata !1297, metadata !1298, metadata !1299, metadata !1300, metadata !1303, metadata !1304, metadata !1305, metadata !1308, metadata !1309, metadata !1312, metadata !1318, metadata !1319, metadata !1322, metadata !1325, metadata !1329, metadata !1330, metadata !1333, metadata !1334, metadata !1376, metadata !1377, metadata !1378, metadata !1379, metadata !1382, metadata !1383, metadata !1384, metadata !1385, metadata !1386, metadata !1387, metadata !1388, metadata !1389, metadata !1390, metadata !1391, metadata !1392, metadata !1393, metadata !1396, metadata !1399}
!1123 = metadata !{i32 786460, metadata !1121, null, metadata !124, i32 0, i64 0, i64 0, i64 0, i32 0, metadata !1124} ; [ DW_TAG_inheritance ]
!1124 = metadata !{i32 786434, null, metadata !"ssdm_int<1 + 1024 * 1, false>", metadata !128, i32 3, i64 1088, i64 64, i32 0, i32 0, null, metadata !1125, i32 0, null, metadata !1132} ; [ DW_TAG_class_type ]
!1125 = metadata !{metadata !1126, metadata !1128}
!1126 = metadata !{i32 786445, metadata !1124, metadata !"V", metadata !128, i32 3, i64 1025, i64 64, i64 0, i32 0, metadata !1127} ; [ DW_TAG_member ]
!1127 = metadata !{i32 786468, null, metadata !"uint1025", null, i32 0, i64 1025, i64 64, i64 0, i32 0, i32 7} ; [ DW_TAG_base_type ]
!1128 = metadata !{i32 786478, i32 0, metadata !1124, metadata !"ssdm_int", metadata !"ssdm_int", metadata !"", metadata !128, i32 3, metadata !1129, i1 false, i1 false, i32 0, i32 0, null, i32 256, i1 false, null, null, i32 0, metadata !136, i32 3} ; [ DW_TAG_subprogram ]
!1129 = metadata !{i32 786453, i32 0, metadata !"", i32 0, i32 0, i64 0, i64 0, i64 0, i32 0, null, metadata !1130, i32 0, i32 0} ; [ DW_TAG_subroutine_type ]
!1130 = metadata !{null, metadata !1131}
!1131 = metadata !{i32 786447, i32 0, metadata !"", i32 0, i32 0, i64 64, i64 64, i64 0, i32 64, metadata !1124} ; [ DW_TAG_pointer_type ]
!1132 = metadata !{metadata !1133, metadata !141}
!1133 = metadata !{i32 786480, null, metadata !"_AP_N", metadata !140, i64 1025, null, i32 0, i32 0} ; [ DW_TAG_template_value_parameter ]
!1134 = metadata !{i32 786478, i32 0, metadata !1121, metadata !"ap_int_base", metadata !"ap_int_base", metadata !"", metadata !124, i32 2379, metadata !1135, i1 false, i1 false, i32 0, i32 0, null, i32 256, i1 false, null, null, i32 0, metadata !136, i32 2379} ; [ DW_TAG_subprogram ]
!1135 = metadata !{i32 786453, i32 0, metadata !"", i32 0, i32 0, i64 0, i64 0, i64 0, i32 0, null, metadata !1136, i32 0, i32 0} ; [ DW_TAG_subroutine_type ]
!1136 = metadata !{null, metadata !1137}
!1137 = metadata !{i32 786447, i32 0, metadata !"", i32 0, i32 0, i64 64, i64 64, i64 0, i32 64, metadata !1121} ; [ DW_TAG_pointer_type ]
!1138 = metadata !{i32 786478, i32 0, metadata !1121, metadata !"ap_int_base<1025, false>", metadata !"ap_int_base<1025, false>", metadata !"", metadata !124, i32 2391, metadata !1139, i1 false, i1 false, i32 0, i32 0, null, i32 256, i1 false, null, metadata !1141, i32 0, metadata !136, i32 2391} ; [ DW_TAG_subprogram ]
!1139 = metadata !{i32 786453, i32 0, metadata !"", i32 0, i32 0, i64 0, i64 0, i64 0, i32 0, null, metadata !1140, i32 0, i32 0} ; [ DW_TAG_subroutine_type ]
!1140 = metadata !{null, metadata !1137, metadata !1119}
!1141 = metadata !{metadata !1142, metadata !154}
!1142 = metadata !{i32 786480, null, metadata !"_AP_W2", metadata !140, i64 1025, null, i32 0, i32 0} ; [ DW_TAG_template_value_parameter ]
!1143 = metadata !{i32 786478, i32 0, metadata !1121, metadata !"ap_int_base<1025, false>", metadata !"ap_int_base<1025, false>", metadata !"", metadata !124, i32 2394, metadata !1144, i1 false, i1 false, i32 0, i32 0, null, i32 256, i1 false, null, metadata !1141, i32 0, metadata !136, i32 2394} ; [ DW_TAG_subprogram ]
!1144 = metadata !{i32 786453, i32 0, metadata !"", i32 0, i32 0, i64 0, i64 0, i64 0, i32 0, null, metadata !1145, i32 0, i32 0} ; [ DW_TAG_subroutine_type ]
!1145 = metadata !{null, metadata !1137, metadata !1146}
!1146 = metadata !{i32 786448, null, null, null, i32 0, i64 0, i64 0, i64 0, i32 0, metadata !1147} ; [ DW_TAG_reference_type ]
!1147 = metadata !{i32 786470, null, metadata !"", null, i32 0, i64 0, i64 0, i64 0, i32 0, metadata !1148} ; [ DW_TAG_const_type ]
!1148 = metadata !{i32 786485, null, metadata !"", null, i32 0, i64 0, i64 0, i64 0, i32 0, metadata !1121} ; [ DW_TAG_volatile_type ]
!1149 = metadata !{i32 786478, i32 0, metadata !1121, metadata !"ap_int_base", metadata !"ap_int_base", metadata !"", metadata !124, i32 2401, metadata !1150, i1 false, i1 false, i32 0, i32 0, null, i32 384, i1 false, null, null, i32 0, metadata !136, i32 2401} ; [ DW_TAG_subprogram ]
!1150 = metadata !{i32 786453, i32 0, metadata !"", i32 0, i32 0, i64 0, i64 0, i64 0, i32 0, null, metadata !1151, i32 0, i32 0} ; [ DW_TAG_subroutine_type ]
!1151 = metadata !{null, metadata !1137, metadata !142}
!1152 = metadata !{i32 786478, i32 0, metadata !1121, metadata !"ap_int_base", metadata !"ap_int_base", metadata !"", metadata !124, i32 2402, metadata !1153, i1 false, i1 false, i32 0, i32 0, null, i32 384, i1 false, null, null, i32 0, metadata !136, i32 2402} ; [ DW_TAG_subprogram ]
!1153 = metadata !{i32 786453, i32 0, metadata !"", i32 0, i32 0, i64 0, i64 0, i64 0, i32 0, null, metadata !1154, i32 0, i32 0} ; [ DW_TAG_subroutine_type ]
!1154 = metadata !{null, metadata !1137, metadata !167}
!1155 = metadata !{i32 786478, i32 0, metadata !1121, metadata !"ap_int_base", metadata !"ap_int_base", metadata !"", metadata !124, i32 2403, metadata !1156, i1 false, i1 false, i32 0, i32 0, null, i32 384, i1 false, null, null, i32 0, metadata !136, i32 2403} ; [ DW_TAG_subprogram ]
!1156 = metadata !{i32 786453, i32 0, metadata !"", i32 0, i32 0, i64 0, i64 0, i64 0, i32 0, null, metadata !1157, i32 0, i32 0} ; [ DW_TAG_subroutine_type ]
!1157 = metadata !{null, metadata !1137, metadata !171}
!1158 = metadata !{i32 786478, i32 0, metadata !1121, metadata !"ap_int_base", metadata !"ap_int_base", metadata !"", metadata !124, i32 2404, metadata !1159, i1 false, i1 false, i32 0, i32 0, null, i32 384, i1 false, null, null, i32 0, metadata !136, i32 2404} ; [ DW_TAG_subprogram ]
!1159 = metadata !{i32 786453, i32 0, metadata !"", i32 0, i32 0, i64 0, i64 0, i64 0, i32 0, null, metadata !1160, i32 0, i32 0} ; [ DW_TAG_subroutine_type ]
!1160 = metadata !{null, metadata !1137, metadata !175}
!1161 = metadata !{i32 786478, i32 0, metadata !1121, metadata !"ap_int_base", metadata !"ap_int_base", metadata !"", metadata !124, i32 2405, metadata !1162, i1 false, i1 false, i32 0, i32 0, null, i32 384, i1 false, null, null, i32 0, metadata !136, i32 2405} ; [ DW_TAG_subprogram ]
!1162 = metadata !{i32 786453, i32 0, metadata !"", i32 0, i32 0, i64 0, i64 0, i64 0, i32 0, null, metadata !1163, i32 0, i32 0} ; [ DW_TAG_subroutine_type ]
!1163 = metadata !{null, metadata !1137, metadata !179}
!1164 = metadata !{i32 786478, i32 0, metadata !1121, metadata !"ap_int_base", metadata !"ap_int_base", metadata !"", metadata !124, i32 2406, metadata !1165, i1 false, i1 false, i32 0, i32 0, null, i32 384, i1 false, null, null, i32 0, metadata !136, i32 2406} ; [ DW_TAG_subprogram ]
!1165 = metadata !{i32 786453, i32 0, metadata !"", i32 0, i32 0, i64 0, i64 0, i64 0, i32 0, null, metadata !1166, i32 0, i32 0} ; [ DW_TAG_subroutine_type ]
!1166 = metadata !{null, metadata !1137, metadata !140}
!1167 = metadata !{i32 786478, i32 0, metadata !1121, metadata !"ap_int_base", metadata !"ap_int_base", metadata !"", metadata !124, i32 2407, metadata !1168, i1 false, i1 false, i32 0, i32 0, null, i32 384, i1 false, null, null, i32 0, metadata !136, i32 2407} ; [ DW_TAG_subprogram ]
!1168 = metadata !{i32 786453, i32 0, metadata !"", i32 0, i32 0, i64 0, i64 0, i64 0, i32 0, null, metadata !1169, i32 0, i32 0} ; [ DW_TAG_subroutine_type ]
!1169 = metadata !{null, metadata !1137, metadata !186}
!1170 = metadata !{i32 786478, i32 0, metadata !1121, metadata !"ap_int_base", metadata !"ap_int_base", metadata !"", metadata !124, i32 2408, metadata !1171, i1 false, i1 false, i32 0, i32 0, null, i32 384, i1 false, null, null, i32 0, metadata !136, i32 2408} ; [ DW_TAG_subprogram ]
!1171 = metadata !{i32 786453, i32 0, metadata !"", i32 0, i32 0, i64 0, i64 0, i64 0, i32 0, null, metadata !1172, i32 0, i32 0} ; [ DW_TAG_subroutine_type ]
!1172 = metadata !{null, metadata !1137, metadata !190}
!1173 = metadata !{i32 786478, i32 0, metadata !1121, metadata !"ap_int_base", metadata !"ap_int_base", metadata !"", metadata !124, i32 2409, metadata !1174, i1 false, i1 false, i32 0, i32 0, null, i32 384, i1 false, null, null, i32 0, metadata !136, i32 2409} ; [ DW_TAG_subprogram ]
!1174 = metadata !{i32 786453, i32 0, metadata !"", i32 0, i32 0, i64 0, i64 0, i64 0, i32 0, null, metadata !1175, i32 0, i32 0} ; [ DW_TAG_subroutine_type ]
!1175 = metadata !{null, metadata !1137, metadata !194}
!1176 = metadata !{i32 786478, i32 0, metadata !1121, metadata !"ap_int_base", metadata !"ap_int_base", metadata !"", metadata !124, i32 2410, metadata !1177, i1 false, i1 false, i32 0, i32 0, null, i32 384, i1 false, null, null, i32 0, metadata !136, i32 2410} ; [ DW_TAG_subprogram ]
!1177 = metadata !{i32 786453, i32 0, metadata !"", i32 0, i32 0, i64 0, i64 0, i64 0, i32 0, null, metadata !1178, i32 0, i32 0} ; [ DW_TAG_subroutine_type ]
!1178 = metadata !{null, metadata !1137, metadata !198}
!1179 = metadata !{i32 786478, i32 0, metadata !1121, metadata !"ap_int_base", metadata !"ap_int_base", metadata !"", metadata !124, i32 2411, metadata !1180, i1 false, i1 false, i32 0, i32 0, null, i32 384, i1 false, null, null, i32 0, metadata !136, i32 2411} ; [ DW_TAG_subprogram ]
!1180 = metadata !{i32 786453, i32 0, metadata !"", i32 0, i32 0, i64 0, i64 0, i64 0, i32 0, null, metadata !1181, i32 0, i32 0} ; [ DW_TAG_subroutine_type ]
!1181 = metadata !{null, metadata !1137, metadata !203}
!1182 = metadata !{i32 786478, i32 0, metadata !1121, metadata !"ap_int_base", metadata !"ap_int_base", metadata !"", metadata !124, i32 2412, metadata !1183, i1 false, i1 false, i32 0, i32 0, null, i32 384, i1 false, null, null, i32 0, metadata !136, i32 2412} ; [ DW_TAG_subprogram ]
!1183 = metadata !{i32 786453, i32 0, metadata !"", i32 0, i32 0, i64 0, i64 0, i64 0, i32 0, null, metadata !1184, i32 0, i32 0} ; [ DW_TAG_subroutine_type ]
!1184 = metadata !{null, metadata !1137, metadata !208}
!1185 = metadata !{i32 786478, i32 0, metadata !1121, metadata !"ap_int_base", metadata !"ap_int_base", metadata !"", metadata !124, i32 2413, metadata !1186, i1 false, i1 false, i32 0, i32 0, null, i32 384, i1 false, null, null, i32 0, metadata !136, i32 2413} ; [ DW_TAG_subprogram ]
!1186 = metadata !{i32 786453, i32 0, metadata !"", i32 0, i32 0, i64 0, i64 0, i64 0, i32 0, null, metadata !1187, i32 0, i32 0} ; [ DW_TAG_subroutine_type ]
!1187 = metadata !{null, metadata !1137, metadata !212}
!1188 = metadata !{i32 786478, i32 0, metadata !1121, metadata !"ap_int_base", metadata !"ap_int_base", metadata !"", metadata !124, i32 2440, metadata !1189, i1 false, i1 false, i32 0, i32 0, null, i32 256, i1 false, null, null, i32 0, metadata !136, i32 2440} ; [ DW_TAG_subprogram ]
!1189 = metadata !{i32 786453, i32 0, metadata !"", i32 0, i32 0, i64 0, i64 0, i64 0, i32 0, null, metadata !1190, i32 0, i32 0} ; [ DW_TAG_subroutine_type ]
!1190 = metadata !{null, metadata !1137, metadata !216}
!1191 = metadata !{i32 786478, i32 0, metadata !1121, metadata !"ap_int_base", metadata !"ap_int_base", metadata !"", metadata !124, i32 2447, metadata !1192, i1 false, i1 false, i32 0, i32 0, null, i32 256, i1 false, null, null, i32 0, metadata !136, i32 2447} ; [ DW_TAG_subprogram ]
!1192 = metadata !{i32 786453, i32 0, metadata !"", i32 0, i32 0, i64 0, i64 0, i64 0, i32 0, null, metadata !1193, i32 0, i32 0} ; [ DW_TAG_subroutine_type ]
!1193 = metadata !{null, metadata !1137, metadata !216, metadata !167}
!1194 = metadata !{i32 786478, i32 0, metadata !1121, metadata !"read", metadata !"read", metadata !"_ZNV11ap_int_baseILi1025ELb0ELb0EE4readEv", metadata !124, i32 2468, metadata !1195, i1 false, i1 false, i32 0, i32 0, null, i32 256, i1 false, null, null, i32 0, metadata !136, i32 2468} ; [ DW_TAG_subprogram ]
!1195 = metadata !{i32 786453, i32 0, metadata !"", i32 0, i32 0, i64 0, i64 0, i64 0, i32 0, null, metadata !1196, i32 0, i32 0} ; [ DW_TAG_subroutine_type ]
!1196 = metadata !{metadata !1121, metadata !1197}
!1197 = metadata !{i32 786447, i32 0, metadata !"", i32 0, i32 0, i64 64, i64 64, i64 0, i32 64, metadata !1148} ; [ DW_TAG_pointer_type ]
!1198 = metadata !{i32 786478, i32 0, metadata !1121, metadata !"write", metadata !"write", metadata !"_ZNV11ap_int_baseILi1025ELb0ELb0EE5writeERKS0_", metadata !124, i32 2474, metadata !1199, i1 false, i1 false, i32 0, i32 0, null, i32 256, i1 false, null, null, i32 0, metadata !136, i32 2474} ; [ DW_TAG_subprogram ]
!1199 = metadata !{i32 786453, i32 0, metadata !"", i32 0, i32 0, i64 0, i64 0, i64 0, i32 0, null, metadata !1200, i32 0, i32 0} ; [ DW_TAG_subroutine_type ]
!1200 = metadata !{null, metadata !1197, metadata !1119}
!1201 = metadata !{i32 786478, i32 0, metadata !1121, metadata !"operator=", metadata !"operator=", metadata !"_ZNV11ap_int_baseILi1025ELb0ELb0EEaSERVKS0_", metadata !124, i32 2486, metadata !1202, i1 false, i1 false, i32 0, i32 0, null, i32 256, i1 false, null, null, i32 0, metadata !136, i32 2486} ; [ DW_TAG_subprogram ]
!1202 = metadata !{i32 786453, i32 0, metadata !"", i32 0, i32 0, i64 0, i64 0, i64 0, i32 0, null, metadata !1203, i32 0, i32 0} ; [ DW_TAG_subroutine_type ]
!1203 = metadata !{null, metadata !1197, metadata !1146}
!1204 = metadata !{i32 786478, i32 0, metadata !1121, metadata !"operator=", metadata !"operator=", metadata !"_ZNV11ap_int_baseILi1025ELb0ELb0EEaSERKS0_", metadata !124, i32 2495, metadata !1199, i1 false, i1 false, i32 0, i32 0, null, i32 256, i1 false, null, null, i32 0, metadata !136, i32 2495} ; [ DW_TAG_subprogram ]
!1205 = metadata !{i32 786478, i32 0, metadata !1121, metadata !"operator=", metadata !"operator=", metadata !"_ZN11ap_int_baseILi1025ELb0ELb0EEaSERVKS0_", metadata !124, i32 2518, metadata !1206, i1 false, i1 false, i32 0, i32 0, null, i32 256, i1 false, null, null, i32 0, metadata !136, i32 2518} ; [ DW_TAG_subprogram ]
!1206 = metadata !{i32 786453, i32 0, metadata !"", i32 0, i32 0, i64 0, i64 0, i64 0, i32 0, null, metadata !1207, i32 0, i32 0} ; [ DW_TAG_subroutine_type ]
!1207 = metadata !{metadata !1208, metadata !1137, metadata !1146}
!1208 = metadata !{i32 786448, null, null, null, i32 0, i64 0, i64 0, i64 0, i32 0, metadata !1121} ; [ DW_TAG_reference_type ]
!1209 = metadata !{i32 786478, i32 0, metadata !1121, metadata !"operator=", metadata !"operator=", metadata !"_ZN11ap_int_baseILi1025ELb0ELb0EEaSERKS0_", metadata !124, i32 2523, metadata !1210, i1 false, i1 false, i32 0, i32 0, null, i32 256, i1 false, null, null, i32 0, metadata !136, i32 2523} ; [ DW_TAG_subprogram ]
!1210 = metadata !{i32 786453, i32 0, metadata !"", i32 0, i32 0, i64 0, i64 0, i64 0, i32 0, null, metadata !1211, i32 0, i32 0} ; [ DW_TAG_subroutine_type ]
!1211 = metadata !{metadata !1208, metadata !1137, metadata !1119}
!1212 = metadata !{i32 786478, i32 0, metadata !1121, metadata !"operator=", metadata !"operator=", metadata !"_ZN11ap_int_baseILi1025ELb0ELb0EEaSEPKc", metadata !124, i32 2527, metadata !1213, i1 false, i1 false, i32 0, i32 0, null, i32 256, i1 false, null, null, i32 0, metadata !136, i32 2527} ; [ DW_TAG_subprogram ]
!1213 = metadata !{i32 786453, i32 0, metadata !"", i32 0, i32 0, i64 0, i64 0, i64 0, i32 0, null, metadata !1214, i32 0, i32 0} ; [ DW_TAG_subroutine_type ]
!1214 = metadata !{metadata !1208, metadata !1137, metadata !216}
!1215 = metadata !{i32 786478, i32 0, metadata !1121, metadata !"set", metadata !"set", metadata !"_ZN11ap_int_baseILi1025ELb0ELb0EE3setEPKca", metadata !124, i32 2535, metadata !1216, i1 false, i1 false, i32 0, i32 0, null, i32 256, i1 false, null, null, i32 0, metadata !136, i32 2535} ; [ DW_TAG_subprogram ]
!1216 = metadata !{i32 786453, i32 0, metadata !"", i32 0, i32 0, i64 0, i64 0, i64 0, i32 0, null, metadata !1217, i32 0, i32 0} ; [ DW_TAG_subroutine_type ]
!1217 = metadata !{metadata !1208, metadata !1137, metadata !216, metadata !167}
!1218 = metadata !{i32 786478, i32 0, metadata !1121, metadata !"operator=", metadata !"operator=", metadata !"_ZN11ap_int_baseILi1025ELb0ELb0EEaSEc", metadata !124, i32 2549, metadata !1219, i1 false, i1 false, i32 0, i32 0, null, i32 256, i1 false, null, null, i32 0, metadata !136, i32 2549} ; [ DW_TAG_subprogram ]
!1219 = metadata !{i32 786453, i32 0, metadata !"", i32 0, i32 0, i64 0, i64 0, i64 0, i32 0, null, metadata !1220, i32 0, i32 0} ; [ DW_TAG_subroutine_type ]
!1220 = metadata !{metadata !1208, metadata !1137, metadata !218}
!1221 = metadata !{i32 786478, i32 0, metadata !1121, metadata !"operator=", metadata !"operator=", metadata !"_ZN11ap_int_baseILi1025ELb0ELb0EEaSEh", metadata !124, i32 2550, metadata !1222, i1 false, i1 false, i32 0, i32 0, null, i32 256, i1 false, null, null, i32 0, metadata !136, i32 2550} ; [ DW_TAG_subprogram ]
!1222 = metadata !{i32 786453, i32 0, metadata !"", i32 0, i32 0, i64 0, i64 0, i64 0, i32 0, null, metadata !1223, i32 0, i32 0} ; [ DW_TAG_subroutine_type ]
!1223 = metadata !{metadata !1208, metadata !1137, metadata !171}
!1224 = metadata !{i32 786478, i32 0, metadata !1121, metadata !"operator=", metadata !"operator=", metadata !"_ZN11ap_int_baseILi1025ELb0ELb0EEaSEs", metadata !124, i32 2551, metadata !1225, i1 false, i1 false, i32 0, i32 0, null, i32 256, i1 false, null, null, i32 0, metadata !136, i32 2551} ; [ DW_TAG_subprogram ]
!1225 = metadata !{i32 786453, i32 0, metadata !"", i32 0, i32 0, i64 0, i64 0, i64 0, i32 0, null, metadata !1226, i32 0, i32 0} ; [ DW_TAG_subroutine_type ]
!1226 = metadata !{metadata !1208, metadata !1137, metadata !175}
!1227 = metadata !{i32 786478, i32 0, metadata !1121, metadata !"operator=", metadata !"operator=", metadata !"_ZN11ap_int_baseILi1025ELb0ELb0EEaSEt", metadata !124, i32 2552, metadata !1228, i1 false, i1 false, i32 0, i32 0, null, i32 256, i1 false, null, null, i32 0, metadata !136, i32 2552} ; [ DW_TAG_subprogram ]
!1228 = metadata !{i32 786453, i32 0, metadata !"", i32 0, i32 0, i64 0, i64 0, i64 0, i32 0, null, metadata !1229, i32 0, i32 0} ; [ DW_TAG_subroutine_type ]
!1229 = metadata !{metadata !1208, metadata !1137, metadata !179}
!1230 = metadata !{i32 786478, i32 0, metadata !1121, metadata !"operator=", metadata !"operator=", metadata !"_ZN11ap_int_baseILi1025ELb0ELb0EEaSEi", metadata !124, i32 2553, metadata !1231, i1 false, i1 false, i32 0, i32 0, null, i32 256, i1 false, null, null, i32 0, metadata !136, i32 2553} ; [ DW_TAG_subprogram ]
!1231 = metadata !{i32 786453, i32 0, metadata !"", i32 0, i32 0, i64 0, i64 0, i64 0, i32 0, null, metadata !1232, i32 0, i32 0} ; [ DW_TAG_subroutine_type ]
!1232 = metadata !{metadata !1208, metadata !1137, metadata !140}
!1233 = metadata !{i32 786478, i32 0, metadata !1121, metadata !"operator=", metadata !"operator=", metadata !"_ZN11ap_int_baseILi1025ELb0ELb0EEaSEj", metadata !124, i32 2554, metadata !1234, i1 false, i1 false, i32 0, i32 0, null, i32 256, i1 false, null, null, i32 0, metadata !136, i32 2554} ; [ DW_TAG_subprogram ]
!1234 = metadata !{i32 786453, i32 0, metadata !"", i32 0, i32 0, i64 0, i64 0, i64 0, i32 0, null, metadata !1235, i32 0, i32 0} ; [ DW_TAG_subroutine_type ]
!1235 = metadata !{metadata !1208, metadata !1137, metadata !186}
!1236 = metadata !{i32 786478, i32 0, metadata !1121, metadata !"operator=", metadata !"operator=", metadata !"_ZN11ap_int_baseILi1025ELb0ELb0EEaSEx", metadata !124, i32 2555, metadata !1237, i1 false, i1 false, i32 0, i32 0, null, i32 256, i1 false, null, null, i32 0, metadata !136, i32 2555} ; [ DW_TAG_subprogram ]
!1237 = metadata !{i32 786453, i32 0, metadata !"", i32 0, i32 0, i64 0, i64 0, i64 0, i32 0, null, metadata !1238, i32 0, i32 0} ; [ DW_TAG_subroutine_type ]
!1238 = metadata !{metadata !1208, metadata !1137, metadata !198}
!1239 = metadata !{i32 786478, i32 0, metadata !1121, metadata !"operator=", metadata !"operator=", metadata !"_ZN11ap_int_baseILi1025ELb0ELb0EEaSEy", metadata !124, i32 2556, metadata !1240, i1 false, i1 false, i32 0, i32 0, null, i32 256, i1 false, null, null, i32 0, metadata !136, i32 2556} ; [ DW_TAG_subprogram ]
!1240 = metadata !{i32 786453, i32 0, metadata !"", i32 0, i32 0, i64 0, i64 0, i64 0, i32 0, null, metadata !1241, i32 0, i32 0} ; [ DW_TAG_subroutine_type ]
!1241 = metadata !{metadata !1208, metadata !1137, metadata !203}
!1242 = metadata !{i32 786478, i32 0, metadata !1121, metadata !"operator unsigned long long", metadata !"operator unsigned long long", metadata !"_ZNK11ap_int_baseILi1025ELb0ELb0EEcvyEv", metadata !124, i32 2595, metadata !1243, i1 false, i1 false, i32 0, i32 0, null, i32 256, i1 false, null, null, i32 0, metadata !136, i32 2595} ; [ DW_TAG_subprogram ]
!1243 = metadata !{i32 786453, i32 0, metadata !"", i32 0, i32 0, i64 0, i64 0, i64 0, i32 0, null, metadata !1244, i32 0, i32 0} ; [ DW_TAG_subroutine_type ]
!1244 = metadata !{metadata !1245, metadata !1246}
!1245 = metadata !{i32 786454, metadata !1121, metadata !"RetType", metadata !124, i32 2345, i64 0, i64 0, i64 0, i32 0, metadata !274} ; [ DW_TAG_typedef ]
!1246 = metadata !{i32 786447, i32 0, metadata !"", i32 0, i32 0, i64 64, i64 64, i64 0, i32 64, metadata !1120} ; [ DW_TAG_pointer_type ]
!1247 = metadata !{i32 786478, i32 0, metadata !1121, metadata !"to_bool", metadata !"to_bool", metadata !"_ZNK11ap_int_baseILi1025ELb0ELb0EE7to_boolEv", metadata !124, i32 2601, metadata !1248, i1 false, i1 false, i32 0, i32 0, null, i32 256, i1 false, null, null, i32 0, metadata !136, i32 2601} ; [ DW_TAG_subprogram ]
!1248 = metadata !{i32 786453, i32 0, metadata !"", i32 0, i32 0, i64 0, i64 0, i64 0, i32 0, null, metadata !1249, i32 0, i32 0} ; [ DW_TAG_subroutine_type ]
!1249 = metadata !{metadata !142, metadata !1246}
!1250 = metadata !{i32 786478, i32 0, metadata !1121, metadata !"to_uchar", metadata !"to_uchar", metadata !"_ZNK11ap_int_baseILi1025ELb0ELb0EE8to_ucharEv", metadata !124, i32 2602, metadata !1248, i1 false, i1 false, i32 0, i32 0, null, i32 256, i1 false, null, null, i32 0, metadata !136, i32 2602} ; [ DW_TAG_subprogram ]
!1251 = metadata !{i32 786478, i32 0, metadata !1121, metadata !"to_char", metadata !"to_char", metadata !"_ZNK11ap_int_baseILi1025ELb0ELb0EE7to_charEv", metadata !124, i32 2603, metadata !1248, i1 false, i1 false, i32 0, i32 0, null, i32 256, i1 false, null, null, i32 0, metadata !136, i32 2603} ; [ DW_TAG_subprogram ]
!1252 = metadata !{i32 786478, i32 0, metadata !1121, metadata !"to_ushort", metadata !"to_ushort", metadata !"_ZNK11ap_int_baseILi1025ELb0ELb0EE9to_ushortEv", metadata !124, i32 2604, metadata !1248, i1 false, i1 false, i32 0, i32 0, null, i32 256, i1 false, null, null, i32 0, metadata !136, i32 2604} ; [ DW_TAG_subprogram ]
!1253 = metadata !{i32 786478, i32 0, metadata !1121, metadata !"to_short", metadata !"to_short", metadata !"_ZNK11ap_int_baseILi1025ELb0ELb0EE8to_shortEv", metadata !124, i32 2605, metadata !1248, i1 false, i1 false, i32 0, i32 0, null, i32 256, i1 false, null, null, i32 0, metadata !136, i32 2605} ; [ DW_TAG_subprogram ]
!1254 = metadata !{i32 786478, i32 0, metadata !1121, metadata !"to_int", metadata !"to_int", metadata !"_ZNK11ap_int_baseILi1025ELb0ELb0EE6to_intEv", metadata !124, i32 2606, metadata !1255, i1 false, i1 false, i32 0, i32 0, null, i32 256, i1 false, null, null, i32 0, metadata !136, i32 2606} ; [ DW_TAG_subprogram ]
!1255 = metadata !{i32 786453, i32 0, metadata !"", i32 0, i32 0, i64 0, i64 0, i64 0, i32 0, null, metadata !1256, i32 0, i32 0} ; [ DW_TAG_subroutine_type ]
!1256 = metadata !{metadata !140, metadata !1246}
!1257 = metadata !{i32 786478, i32 0, metadata !1121, metadata !"to_uint", metadata !"to_uint", metadata !"_ZNK11ap_int_baseILi1025ELb0ELb0EE7to_uintEv", metadata !124, i32 2607, metadata !1258, i1 false, i1 false, i32 0, i32 0, null, i32 256, i1 false, null, null, i32 0, metadata !136, i32 2607} ; [ DW_TAG_subprogram ]
!1258 = metadata !{i32 786453, i32 0, metadata !"", i32 0, i32 0, i64 0, i64 0, i64 0, i32 0, null, metadata !1259, i32 0, i32 0} ; [ DW_TAG_subroutine_type ]
!1259 = metadata !{metadata !186, metadata !1246}
!1260 = metadata !{i32 786478, i32 0, metadata !1121, metadata !"to_long", metadata !"to_long", metadata !"_ZNK11ap_int_baseILi1025ELb0ELb0EE7to_longEv", metadata !124, i32 2608, metadata !1261, i1 false, i1 false, i32 0, i32 0, null, i32 256, i1 false, null, null, i32 0, metadata !136, i32 2608} ; [ DW_TAG_subprogram ]
!1261 = metadata !{i32 786453, i32 0, metadata !"", i32 0, i32 0, i64 0, i64 0, i64 0, i32 0, null, metadata !1262, i32 0, i32 0} ; [ DW_TAG_subroutine_type ]
!1262 = metadata !{metadata !190, metadata !1246}
!1263 = metadata !{i32 786478, i32 0, metadata !1121, metadata !"to_ulong", metadata !"to_ulong", metadata !"_ZNK11ap_int_baseILi1025ELb0ELb0EE8to_ulongEv", metadata !124, i32 2609, metadata !1264, i1 false, i1 false, i32 0, i32 0, null, i32 256, i1 false, null, null, i32 0, metadata !136, i32 2609} ; [ DW_TAG_subprogram ]
!1264 = metadata !{i32 786453, i32 0, metadata !"", i32 0, i32 0, i64 0, i64 0, i64 0, i32 0, null, metadata !1265, i32 0, i32 0} ; [ DW_TAG_subroutine_type ]
!1265 = metadata !{metadata !194, metadata !1246}
!1266 = metadata !{i32 786478, i32 0, metadata !1121, metadata !"to_int64", metadata !"to_int64", metadata !"_ZNK11ap_int_baseILi1025ELb0ELb0EE8to_int64Ev", metadata !124, i32 2610, metadata !1267, i1 false, i1 false, i32 0, i32 0, null, i32 256, i1 false, null, null, i32 0, metadata !136, i32 2610} ; [ DW_TAG_subprogram ]
!1267 = metadata !{i32 786453, i32 0, metadata !"", i32 0, i32 0, i64 0, i64 0, i64 0, i32 0, null, metadata !1268, i32 0, i32 0} ; [ DW_TAG_subroutine_type ]
!1268 = metadata !{metadata !198, metadata !1246}
!1269 = metadata !{i32 786478, i32 0, metadata !1121, metadata !"to_uint64", metadata !"to_uint64", metadata !"_ZNK11ap_int_baseILi1025ELb0ELb0EE9to_uint64Ev", metadata !124, i32 2611, metadata !1270, i1 false, i1 false, i32 0, i32 0, null, i32 256, i1 false, null, null, i32 0, metadata !136, i32 2611} ; [ DW_TAG_subprogram ]
!1270 = metadata !{i32 786453, i32 0, metadata !"", i32 0, i32 0, i64 0, i64 0, i64 0, i32 0, null, metadata !1271, i32 0, i32 0} ; [ DW_TAG_subroutine_type ]
!1271 = metadata !{metadata !203, metadata !1246}
!1272 = metadata !{i32 786478, i32 0, metadata !1121, metadata !"to_double", metadata !"to_double", metadata !"_ZNK11ap_int_baseILi1025ELb0ELb0EE9to_doubleEv", metadata !124, i32 2612, metadata !1273, i1 false, i1 false, i32 0, i32 0, null, i32 256, i1 false, null, null, i32 0, metadata !136, i32 2612} ; [ DW_TAG_subprogram ]
!1273 = metadata !{i32 786453, i32 0, metadata !"", i32 0, i32 0, i64 0, i64 0, i64 0, i32 0, null, metadata !1274, i32 0, i32 0} ; [ DW_TAG_subroutine_type ]
!1274 = metadata !{metadata !212, metadata !1246}
!1275 = metadata !{i32 786478, i32 0, metadata !1121, metadata !"length", metadata !"length", metadata !"_ZNK11ap_int_baseILi1025ELb0ELb0EE6lengthEv", metadata !124, i32 2625, metadata !1255, i1 false, i1 false, i32 0, i32 0, null, i32 256, i1 false, null, null, i32 0, metadata !136, i32 2625} ; [ DW_TAG_subprogram ]
!1276 = metadata !{i32 786478, i32 0, metadata !1121, metadata !"length", metadata !"length", metadata !"_ZNVK11ap_int_baseILi1025ELb0ELb0EE6lengthEv", metadata !124, i32 2626, metadata !1277, i1 false, i1 false, i32 0, i32 0, null, i32 256, i1 false, null, null, i32 0, metadata !136, i32 2626} ; [ DW_TAG_subprogram ]
!1277 = metadata !{i32 786453, i32 0, metadata !"", i32 0, i32 0, i64 0, i64 0, i64 0, i32 0, null, metadata !1278, i32 0, i32 0} ; [ DW_TAG_subroutine_type ]
!1278 = metadata !{metadata !140, metadata !1279}
!1279 = metadata !{i32 786447, i32 0, metadata !"", i32 0, i32 0, i64 64, i64 64, i64 0, i32 64, metadata !1147} ; [ DW_TAG_pointer_type ]
!1280 = metadata !{i32 786478, i32 0, metadata !1121, metadata !"reverse", metadata !"reverse", metadata !"_ZN11ap_int_baseILi1025ELb0ELb0EE7reverseEv", metadata !124, i32 2631, metadata !1281, i1 false, i1 false, i32 0, i32 0, null, i32 256, i1 false, null, null, i32 0, metadata !136, i32 2631} ; [ DW_TAG_subprogram ]
!1281 = metadata !{i32 786453, i32 0, metadata !"", i32 0, i32 0, i64 0, i64 0, i64 0, i32 0, null, metadata !1282, i32 0, i32 0} ; [ DW_TAG_subroutine_type ]
!1282 = metadata !{metadata !1208, metadata !1137}
!1283 = metadata !{i32 786478, i32 0, metadata !1121, metadata !"iszero", metadata !"iszero", metadata !"_ZNK11ap_int_baseILi1025ELb0ELb0EE6iszeroEv", metadata !124, i32 2637, metadata !1248, i1 false, i1 false, i32 0, i32 0, null, i32 256, i1 false, null, null, i32 0, metadata !136, i32 2637} ; [ DW_TAG_subprogram ]
!1284 = metadata !{i32 786478, i32 0, metadata !1121, metadata !"is_zero", metadata !"is_zero", metadata !"_ZNK11ap_int_baseILi1025ELb0ELb0EE7is_zeroEv", metadata !124, i32 2642, metadata !1248, i1 false, i1 false, i32 0, i32 0, null, i32 256, i1 false, null, null, i32 0, metadata !136, i32 2642} ; [ DW_TAG_subprogram ]
!1285 = metadata !{i32 786478, i32 0, metadata !1121, metadata !"sign", metadata !"sign", metadata !"_ZNK11ap_int_baseILi1025ELb0ELb0EE4signEv", metadata !124, i32 2647, metadata !1248, i1 false, i1 false, i32 0, i32 0, null, i32 256, i1 false, null, null, i32 0, metadata !136, i32 2647} ; [ DW_TAG_subprogram ]
!1286 = metadata !{i32 786478, i32 0, metadata !1121, metadata !"clear", metadata !"clear", metadata !"_ZN11ap_int_baseILi1025ELb0ELb0EE5clearEi", metadata !124, i32 2655, metadata !1165, i1 false, i1 false, i32 0, i32 0, null, i32 256, i1 false, null, null, i32 0, metadata !136, i32 2655} ; [ DW_TAG_subprogram ]
!1287 = metadata !{i32 786478, i32 0, metadata !1121, metadata !"invert", metadata !"invert", metadata !"_ZN11ap_int_baseILi1025ELb0ELb0EE6invertEi", metadata !124, i32 2661, metadata !1165, i1 false, i1 false, i32 0, i32 0, null, i32 256, i1 false, null, null, i32 0, metadata !136, i32 2661} ; [ DW_TAG_subprogram ]
!1288 = metadata !{i32 786478, i32 0, metadata !1121, metadata !"test", metadata !"test", metadata !"_ZNK11ap_int_baseILi1025ELb0ELb0EE4testEi", metadata !124, i32 2669, metadata !1289, i1 false, i1 false, i32 0, i32 0, null, i32 256, i1 false, null, null, i32 0, metadata !136, i32 2669} ; [ DW_TAG_subprogram ]
!1289 = metadata !{i32 786453, i32 0, metadata !"", i32 0, i32 0, i64 0, i64 0, i64 0, i32 0, null, metadata !1290, i32 0, i32 0} ; [ DW_TAG_subroutine_type ]
!1290 = metadata !{metadata !142, metadata !1246, metadata !140}
!1291 = metadata !{i32 786478, i32 0, metadata !1121, metadata !"set", metadata !"set", metadata !"_ZN11ap_int_baseILi1025ELb0ELb0EE3setEi", metadata !124, i32 2675, metadata !1165, i1 false, i1 false, i32 0, i32 0, null, i32 256, i1 false, null, null, i32 0, metadata !136, i32 2675} ; [ DW_TAG_subprogram ]
!1292 = metadata !{i32 786478, i32 0, metadata !1121, metadata !"set", metadata !"set", metadata !"_ZN11ap_int_baseILi1025ELb0ELb0EE3setEib", metadata !124, i32 2681, metadata !1293, i1 false, i1 false, i32 0, i32 0, null, i32 256, i1 false, null, null, i32 0, metadata !136, i32 2681} ; [ DW_TAG_subprogram ]
!1293 = metadata !{i32 786453, i32 0, metadata !"", i32 0, i32 0, i64 0, i64 0, i64 0, i32 0, null, metadata !1294, i32 0, i32 0} ; [ DW_TAG_subroutine_type ]
!1294 = metadata !{null, metadata !1137, metadata !140, metadata !142}
!1295 = metadata !{i32 786478, i32 0, metadata !1121, metadata !"lrotate", metadata !"lrotate", metadata !"_ZN11ap_int_baseILi1025ELb0ELb0EE7lrotateEi", metadata !124, i32 2688, metadata !1165, i1 false, i1 false, i32 0, i32 0, null, i32 256, i1 false, null, null, i32 0, metadata !136, i32 2688} ; [ DW_TAG_subprogram ]
!1296 = metadata !{i32 786478, i32 0, metadata !1121, metadata !"rrotate", metadata !"rrotate", metadata !"_ZN11ap_int_baseILi1025ELb0ELb0EE7rrotateEi", metadata !124, i32 2697, metadata !1165, i1 false, i1 false, i32 0, i32 0, null, i32 256, i1 false, null, null, i32 0, metadata !136, i32 2697} ; [ DW_TAG_subprogram ]
!1297 = metadata !{i32 786478, i32 0, metadata !1121, metadata !"set_bit", metadata !"set_bit", metadata !"_ZN11ap_int_baseILi1025ELb0ELb0EE7set_bitEib", metadata !124, i32 2705, metadata !1293, i1 false, i1 false, i32 0, i32 0, null, i32 256, i1 false, null, null, i32 0, metadata !136, i32 2705} ; [ DW_TAG_subprogram ]
!1298 = metadata !{i32 786478, i32 0, metadata !1121, metadata !"get_bit", metadata !"get_bit", metadata !"_ZNK11ap_int_baseILi1025ELb0ELb0EE7get_bitEi", metadata !124, i32 2710, metadata !1289, i1 false, i1 false, i32 0, i32 0, null, i32 256, i1 false, null, null, i32 0, metadata !136, i32 2710} ; [ DW_TAG_subprogram ]
!1299 = metadata !{i32 786478, i32 0, metadata !1121, metadata !"b_not", metadata !"b_not", metadata !"_ZN11ap_int_baseILi1025ELb0ELb0EE5b_notEv", metadata !124, i32 2715, metadata !1135, i1 false, i1 false, i32 0, i32 0, null, i32 256, i1 false, null, null, i32 0, metadata !136, i32 2715} ; [ DW_TAG_subprogram ]
!1300 = metadata !{i32 786478, i32 0, metadata !1121, metadata !"countLeadingZeros", metadata !"countLeadingZeros", metadata !"_ZN11ap_int_baseILi1025ELb0ELb0EE17countLeadingZerosEv", metadata !124, i32 2722, metadata !1301, i1 false, i1 false, i32 0, i32 0, null, i32 256, i1 false, null, null, i32 0, metadata !136, i32 2722} ; [ DW_TAG_subprogram ]
!1301 = metadata !{i32 786453, i32 0, metadata !"", i32 0, i32 0, i64 0, i64 0, i64 0, i32 0, null, metadata !1302, i32 0, i32 0} ; [ DW_TAG_subroutine_type ]
!1302 = metadata !{metadata !140, metadata !1137}
!1303 = metadata !{i32 786478, i32 0, metadata !1121, metadata !"operator++", metadata !"operator++", metadata !"_ZN11ap_int_baseILi1025ELb0ELb0EEppEv", metadata !124, i32 2779, metadata !1281, i1 false, i1 false, i32 0, i32 0, null, i32 256, i1 false, null, null, i32 0, metadata !136, i32 2779} ; [ DW_TAG_subprogram ]
!1304 = metadata !{i32 786478, i32 0, metadata !1121, metadata !"operator--", metadata !"operator--", metadata !"_ZN11ap_int_baseILi1025ELb0ELb0EEmmEv", metadata !124, i32 2783, metadata !1281, i1 false, i1 false, i32 0, i32 0, null, i32 256, i1 false, null, null, i32 0, metadata !136, i32 2783} ; [ DW_TAG_subprogram ]
!1305 = metadata !{i32 786478, i32 0, metadata !1121, metadata !"operator++", metadata !"operator++", metadata !"_ZN11ap_int_baseILi1025ELb0ELb0EEppEi", metadata !124, i32 2791, metadata !1306, i1 false, i1 false, i32 0, i32 0, null, i32 256, i1 false, null, null, i32 0, metadata !136, i32 2791} ; [ DW_TAG_subprogram ]
!1306 = metadata !{i32 786453, i32 0, metadata !"", i32 0, i32 0, i64 0, i64 0, i64 0, i32 0, null, metadata !1307, i32 0, i32 0} ; [ DW_TAG_subroutine_type ]
!1307 = metadata !{metadata !1120, metadata !1137, metadata !140}
!1308 = metadata !{i32 786478, i32 0, metadata !1121, metadata !"operator--", metadata !"operator--", metadata !"_ZN11ap_int_baseILi1025ELb0ELb0EEmmEi", metadata !124, i32 2796, metadata !1306, i1 false, i1 false, i32 0, i32 0, null, i32 256, i1 false, null, null, i32 0, metadata !136, i32 2796} ; [ DW_TAG_subprogram ]
!1309 = metadata !{i32 786478, i32 0, metadata !1121, metadata !"operator+", metadata !"operator+", metadata !"_ZNK11ap_int_baseILi1025ELb0ELb0EEpsEv", metadata !124, i32 2805, metadata !1310, i1 false, i1 false, i32 0, i32 0, null, i32 256, i1 false, null, null, i32 0, metadata !136, i32 2805} ; [ DW_TAG_subprogram ]
!1310 = metadata !{i32 786453, i32 0, metadata !"", i32 0, i32 0, i64 0, i64 0, i64 0, i32 0, null, metadata !1311, i32 0, i32 0} ; [ DW_TAG_subroutine_type ]
!1311 = metadata !{metadata !1121, metadata !1246}
!1312 = metadata !{i32 786478, i32 0, metadata !1121, metadata !"operator-", metadata !"operator-", metadata !"_ZNK11ap_int_baseILi1025ELb0ELb0EEngEv", metadata !124, i32 2809, metadata !1313, i1 false, i1 false, i32 0, i32 0, null, i32 256, i1 false, null, null, i32 0, metadata !136, i32 2809} ; [ DW_TAG_subprogram ]
!1313 = metadata !{i32 786453, i32 0, metadata !"", i32 0, i32 0, i64 0, i64 0, i64 0, i32 0, null, metadata !1314, i32 0, i32 0} ; [ DW_TAG_subroutine_type ]
!1314 = metadata !{metadata !1315, metadata !1246}
